///////////////////////////////////////////////////////////////////////////////
//
// IAR C/C++ Compiler V10.30.1.6000 for 8051              17/Jul/2019  00:36:43
// Copyright 2004-2018 IAR Systems AB.
// PC-locked license - IAR Embedded Workbench for 8051
//
//    Core               =  plain
//    Code model         =  banked
//    Data model         =  large
//    Calling convention =  xdata reentrant
//    Constant location  =  data_rom
//    Dptr setup         =  1,16
//                          
//    Source file        =  
//        E:\GitHub\DHT11-Router\ZStack-CC2530-2.5.1a\Projects\zstack\Samples\ProjectApp\Source\ProjectApp.c
//    Command line       =  
//        -f C:\Users\Admin\AppData\Local\Temp\EW7E4E.tmp
//        (E:\GitHub\DHT11-Router\ZStack-CC2530-2.5.1a\Projects\zstack\Samples\ProjectApp\Source\ProjectApp.c
//        -D xZTOOL_P1 -D xMT_TASK -D xMT_SYS_FUNC -D xMT_ZDO_FUNC -D
//        HAL_UART=TRUE -D xLCD_SUPPORTED=DEBUG -D HAL_LCD=FALSE -lC
//        E:\GitHub\DHT11-Router\ZStack-CC2530-2.5.1a\Projects\zstack\Samples\ProjectApp\CC2530DB\RouterEB\List
//        -lA
//        E:\GitHub\DHT11-Router\ZStack-CC2530-2.5.1a\Projects\zstack\Samples\ProjectApp\CC2530DB\RouterEB\List
//        --diag_suppress Pe001,Pa010 -o
//        E:\GitHub\DHT11-Router\ZStack-CC2530-2.5.1a\Projects\zstack\Samples\ProjectApp\CC2530DB\RouterEB\Obj
//        -e --debug --core=plain --dptr=16,1 --data_model=large
//        --code_model=banked --calling_convention=xdata_reentrant
//        --place_constants=data_rom --nr_virtual_regs 8 -f
//        E:\GitHub\DHT11-Router\ZStack-CC2530-2.5.1a\Projects\zstack\Samples\ProjectApp\CC2530DB\..\..\..\Tools\CC2530DB\f8wRouter.cfg
//        (-DCPU32MHZ -DROOT=__near_func -DMAC_CFG_APP_PENDING_QUEUE=TRUE
//        -DMAC_CFG_TX_DATA_MAX=5 -DMAC_CFG_TX_MAX=8 -DMAC_CFG_RX_MAX=5
//        -DRTR_NWK) -f
//        E:\GitHub\DHT11-Router\ZStack-CC2530-2.5.1a\Projects\zstack\Samples\ProjectApp\CC2530DB\..\..\..\Tools\CC2530DB\f8wConfig.cfg
//        (-DZIGBEEPRO -DSECURE=0 -DZG_SECURE_DYNAMIC=0 -DREFLECTOR
//        -DDEFAULT_CHANLIST=0x00000800 -DZDAPP_CONFIG_PAN_ID=0xFFFF
//        -DNWK_START_DELAY=100 -DEXTENDED_JOINING_RANDOM_MASK=0x007F
//        -DBEACON_REQUEST_DELAY=100 -DBEACON_REQ_DELAY_MASK=0x00FF
//        -DLINK_STATUS_JITTER_MASK=0x007F -DROUTE_EXPIRY_TIME=30
//        -DAPSC_ACK_WAIT_DURATION_POLLED=3000 -DNWK_INDIRECT_MSG_TIMEOUT=7
//        -DMAX_RREQ_ENTRIES=8 -DAPSC_MAX_FRAME_RETRIES=3
//        -DNWK_MAX_DATA_RETRIES=2 -DMAX_POLL_FAILURE_RETRIES=2 -DMAX_BCAST=9
//        -DAPS_MAX_GROUPS=16 -DMAX_RTG_ENTRIES=40 -DNWK_MAX_BINDING_ENTRIES=4
//        -DMAX_BINDING_CLUSTER_IDS=4 "-DDEFAULT_KEY={0x01, 0x03, 0x05, 0x07,
//        0x09, 0x0B, 0x0D, 0x0F, 0x00, 0x02, 0x04, 0x06, 0x08, 0x0A, 0x0C,
//        0x0D}" -DMAC_MAX_FRAME_SIZE=116 -DZDNWKMGR_MIN_TRANSMISSIONS=20
//        "-DCONST=const __code" -DGENERIC=__generic -DRFD_RCVC_ALWAYS_ON=FALSE
//        -DPOLL_RATE=1000 -DQUEUED_POLL_RATE=100 -DRESPONSE_POLL_RATE=100
//        -DREJOIN_POLL_RATE=440) -I
//        E:\GitHub\DHT11-Router\ZStack-CC2530-2.5.1a\Projects\zstack\Samples\ProjectApp\CC2530DB\
//        -I
//        E:\GitHub\DHT11-Router\ZStack-CC2530-2.5.1a\Projects\zstack\Samples\ProjectApp\CC2530DB\..\Source\
//        -I
//        E:\GitHub\DHT11-Router\ZStack-CC2530-2.5.1a\Projects\zstack\Samples\ProjectApp\CC2530DB\..\..\..\ZMain\TI2530DB\
//        -I
//        E:\GitHub\DHT11-Router\ZStack-CC2530-2.5.1a\Projects\zstack\Samples\ProjectApp\CC2530DB\..\..\..\..\..\Components\hal\include\
//        -I
//        E:\GitHub\DHT11-Router\ZStack-CC2530-2.5.1a\Projects\zstack\Samples\ProjectApp\CC2530DB\..\..\..\..\..\Components\hal\target\CC2530EB\
//        -I
//        E:\GitHub\DHT11-Router\ZStack-CC2530-2.5.1a\Projects\zstack\Samples\ProjectApp\CC2530DB\..\..\..\..\..\Components\mac\include\
//        -I
//        E:\GitHub\DHT11-Router\ZStack-CC2530-2.5.1a\Projects\zstack\Samples\ProjectApp\CC2530DB\..\..\..\..\..\Components\mac\high_level\
//        -I
//        E:\GitHub\DHT11-Router\ZStack-CC2530-2.5.1a\Projects\zstack\Samples\ProjectApp\CC2530DB\..\..\..\..\..\Components\mac\low_level\srf04\
//        -I
//        E:\GitHub\DHT11-Router\ZStack-CC2530-2.5.1a\Projects\zstack\Samples\ProjectApp\CC2530DB\..\..\..\..\..\Components\mac\low_level\srf04\single_chip\
//        -I
//        E:\GitHub\DHT11-Router\ZStack-CC2530-2.5.1a\Projects\zstack\Samples\ProjectApp\CC2530DB\..\..\..\..\..\Components\mt\
//        -I
//        E:\GitHub\DHT11-Router\ZStack-CC2530-2.5.1a\Projects\zstack\Samples\ProjectApp\CC2530DB\..\..\..\..\..\Components\osal\include\
//        -I
//        E:\GitHub\DHT11-Router\ZStack-CC2530-2.5.1a\Projects\zstack\Samples\ProjectApp\CC2530DB\..\..\..\..\..\Components\services\saddr\
//        -I
//        E:\GitHub\DHT11-Router\ZStack-CC2530-2.5.1a\Projects\zstack\Samples\ProjectApp\CC2530DB\..\..\..\..\..\Components\services\sdata\
//        -I
//        E:\GitHub\DHT11-Router\ZStack-CC2530-2.5.1a\Projects\zstack\Samples\ProjectApp\CC2530DB\..\..\..\..\..\Components\stack\af\
//        -I
//        E:\GitHub\DHT11-Router\ZStack-CC2530-2.5.1a\Projects\zstack\Samples\ProjectApp\CC2530DB\..\..\..\..\..\Components\stack\nwk\
//        -I
//        E:\GitHub\DHT11-Router\ZStack-CC2530-2.5.1a\Projects\zstack\Samples\ProjectApp\CC2530DB\..\..\..\..\..\Components\stack\sapi\
//        -I
//        E:\GitHub\DHT11-Router\ZStack-CC2530-2.5.1a\Projects\zstack\Samples\ProjectApp\CC2530DB\..\..\..\..\..\Components\stack\sec\
//        -I
//        E:\GitHub\DHT11-Router\ZStack-CC2530-2.5.1a\Projects\zstack\Samples\ProjectApp\CC2530DB\..\..\..\..\..\Components\stack\sys\
//        -I
//        E:\GitHub\DHT11-Router\ZStack-CC2530-2.5.1a\Projects\zstack\Samples\ProjectApp\CC2530DB\..\..\..\..\..\Components\stack\zdo\
//        -I
//        E:\GitHub\DHT11-Router\ZStack-CC2530-2.5.1a\Projects\zstack\Samples\ProjectApp\CC2530DB\..\..\..\..\..\Components\zmac\
//        -I
//        E:\GitHub\DHT11-Router\ZStack-CC2530-2.5.1a\Projects\zstack\Samples\ProjectApp\CC2530DB\..\..\..\..\..\Components\zmac\f8w\
//        -Ohz --require_prototypes --no_code_motion)
//    Locale             =  Chinese (Simplified)_CHN.936
//    List file          =  
//        E:\GitHub\DHT11-Router\ZStack-CC2530-2.5.1a\Projects\zstack\Samples\ProjectApp\CC2530DB\RouterEB\List\ProjectApp.s51
//
///////////////////////////////////////////////////////////////////////////////

        NAME ProjectApp

        RTMODEL "__SystemLibrary", "CLib"
        RTMODEL "__calling_convention", "xdata_reentrant"
        RTMODEL "__code_model", "banked"
        RTMODEL "__core", "plain"
        RTMODEL "__data_model", "large"
        RTMODEL "__dptr_size", "16"
        RTMODEL "__extended_stack", "disabled"
        RTMODEL "__location_for_constants", "data"
        RTMODEL "__number_of_dptrs", "1"
        RTMODEL "__register_banks", "*"
        RTMODEL "__rt_version", "1"

        RSEG DOVERLAY:DATA:NOROOT(0)
        RSEG IOVERLAY:IDATA:NOROOT(0)
        RSEG ISTACK:IDATA:NOROOT(0)
        RSEG PSTACK:XDATA:NOROOT(0)
        RSEG XSTACK:XDATA:NOROOT(0)

        EXTERN ?V0
        EXTERN ?V1
        EXTERN ?V2
        EXTERN ?V3
        EXTERN ?V4
        EXTERN ?V5
        EXTERN ?ALLOC_XSTACK8
        EXTERN ?BANKED_ENTER_XDATA
        EXTERN ?BANKED_LEAVE_XDATA
        EXTERN ?BDISPATCH
        EXTERN ?DEALLOC_XSTACK8
        EXTERN ?MOVE_LONG8_XDATA_XDATA
        EXTERN ?PUSH_XSTACK_I_ONE
        EXTERN ?PUSH_XSTACK_I_THREE
        EXTERN ?PUSH_XSTACK_I_TWO
        EXTERN ?XSP
        EXTERN ?XSTACK_DISP0_8
        EXTERN ?XSTACK_DISP100_8
        EXTERN ?XSTACK_DISP101_8
        EXTERN ?XSTACK_DISP102_8
        EXTERN __INIT_XDATA_Z

        FUNCTION `??ProjectApp_HandleKeys::?relay`,0203H
        PUBLIC `??ProjectApp_Init::?relay`
        FUNCTION `??ProjectApp_Init::?relay`,0203H
        FUNCTION `??ProjectApp_MessageMSGCB::?relay`,0203H
        PUBLIC `??ProjectApp_ProcessEvent::?relay`
        FUNCTION `??ProjectApp_ProcessEvent::?relay`,0203H
        PUBWEAK P0DIR
        PUBWEAK P0SEL
        PUBLIC ProjectApp_ClusterList
        PUBLIC ProjectApp_DstAddr
        FUNCTION ProjectApp_HandleKeys,0a1203H
        ARGFRAME XSTACK, 24, STACK
        ARGFRAME IOVERLAY, 0, STATIC
        ARGFRAME DOVERLAY, 0, STATIC
        LOCFRAME XSTACK, 41, STACK
        PUBLIC ProjectApp_Init
        FUNCTION ProjectApp_Init,021203H
        ARGFRAME XSTACK, 0, STACK
        LOCFRAME XSTACK, 9, STACK
        FUNCTION ProjectApp_MessageMSGCB,0a1203H
        ARGFRAME XSTACK, 24, STACK
        ARGFRAME IOVERLAY, 0, STATIC
        ARGFRAME DOVERLAY, 0, STATIC
        LOCFRAME XSTACK, 20, STACK
        PUBLIC ProjectApp_NwkState
        PUBLIC ProjectApp_ProcessEvent
        FUNCTION ProjectApp_ProcessEvent,0a1203H
        ARGFRAME XSTACK, 0, STACK
        LOCFRAME XSTACK, 33, STACK
        PUBLIC ProjectApp_SimpleDesc
        PUBLIC ProjectApp_TaskID
        PUBLIC ProjectApp_TransID
        PUBLIC ProjectApp_epDesc
        PUBWEAK _A_P0
        
          CFI Names cfiNames0
          CFI StackFrame CFA_SP SP IDATA
          CFI StackFrame CFA_PSP16 PSP16 XDATA
          CFI StackFrame CFA_XSP16 XSP16 XDATA
          CFI StaticOverlayFrame CFA_IOVERLAY IOVERLAY
          CFI StaticOverlayFrame CFA_DOVERLAY DOVERLAY
          CFI Resource `PSW.CY`:1, `B.BR0`:1, `B.BR1`:1, `B.BR2`:1, `B.BR3`:1
          CFI Resource `B.BR4`:1, `B.BR5`:1, `B.BR6`:1, `B.BR7`:1, `VB.BR8`:1
          CFI Resource `VB.BR9`:1, `VB.BR10`:1, `VB.BR11`:1, `VB.BR12`:1
          CFI Resource `VB.BR13`:1, `VB.BR14`:1, `VB.BR15`:1, VB:8, B:8, A:8
          CFI Resource PSW:8, DPL0:8, DPH0:8, R0:8, R1:8, R2:8, R3:8, R4:8, R5:8
          CFI Resource R6:8, R7:8, V0:8, V1:8, V2:8, V3:8, V4:8, V5:8, V6:8, V7:8
          CFI Resource SP:8, PSPH:8, PSPL:8, PSP16:16, XSPH:8, XSPL:8, XSP16:16
          CFI VirtualResource ?RET:24
          CFI Resource ?BRET_EXT:8
          CFI VirtualResource ?RET_HIGH:8, ?RET_LOW:8
          CFI ResourceParts PSP16 PSPH, PSPL
          CFI ResourceParts XSP16 XSPH, XSPL
          CFI ResourceParts ?RET ?BRET_EXT, ?RET_HIGH, ?RET_LOW
          CFI EndNames cfiNames0
        
          CFI Common cfiCommon0 Using cfiNames0
          CFI CodeAlign 1
          CFI DataAlign -1
          CFI ReturnAddress ?RET CODE
          CFI CFA_DOVERLAY Used
          CFI CFA_IOVERLAY Used
          CFI CFA_SP SP+-3
          CFI CFA_PSP16 PSP16+0
          CFI CFA_XSP16 XSP16+0
          CFI `PSW.CY` SameValue
          CFI `B.BR0` SameValue
          CFI `B.BR1` SameValue
          CFI `B.BR2` SameValue
          CFI `B.BR3` SameValue
          CFI `B.BR4` SameValue
          CFI `B.BR5` SameValue
          CFI `B.BR6` SameValue
          CFI `B.BR7` SameValue
          CFI `VB.BR8` SameValue
          CFI `VB.BR9` SameValue
          CFI `VB.BR10` SameValue
          CFI `VB.BR11` SameValue
          CFI `VB.BR12` SameValue
          CFI `VB.BR13` SameValue
          CFI `VB.BR14` SameValue
          CFI `VB.BR15` SameValue
          CFI VB SameValue
          CFI B Undefined
          CFI A Undefined
          CFI PSW SameValue
          CFI DPL0 SameValue
          CFI DPH0 SameValue
          CFI R0 Undefined
          CFI R1 Undefined
          CFI R2 Undefined
          CFI R3 Undefined
          CFI R4 Undefined
          CFI R5 Undefined
          CFI R6 SameValue
          CFI R7 SameValue
          CFI V0 SameValue
          CFI V1 SameValue
          CFI V2 SameValue
          CFI V3 SameValue
          CFI V4 SameValue
          CFI V5 SameValue
          CFI V6 SameValue
          CFI V7 SameValue
          CFI PSPH Undefined
          CFI PSPL Undefined
          CFI XSPH Undefined
          CFI XSPL Undefined
          CFI ?RET Concat
          CFI ?BRET_EXT Frame(CFA_SP, 3)
          CFI ?RET_HIGH Frame(CFA_SP, 2)
          CFI ?RET_LOW Frame(CFA_SP, 1)
          CFI EndCommon cfiCommon0
        
        
          CFI Common cfiCommon1 Using cfiNames0
          CFI CodeAlign 1
          CFI DataAlign -1
          CFI ReturnAddress ?RET CODE
          CFI CFA_DOVERLAY Used
          CFI CFA_IOVERLAY Used
          CFI CFA_SP SP+-2
          CFI CFA_PSP16 PSP16+0
          CFI CFA_XSP16 XSP16+0
          CFI `PSW.CY` SameValue
          CFI `B.BR0` SameValue
          CFI `B.BR1` SameValue
          CFI `B.BR2` SameValue
          CFI `B.BR3` SameValue
          CFI `B.BR4` SameValue
          CFI `B.BR5` SameValue
          CFI `B.BR6` SameValue
          CFI `B.BR7` SameValue
          CFI `VB.BR8` SameValue
          CFI `VB.BR9` SameValue
          CFI `VB.BR10` SameValue
          CFI `VB.BR11` SameValue
          CFI `VB.BR12` SameValue
          CFI `VB.BR13` SameValue
          CFI `VB.BR14` SameValue
          CFI `VB.BR15` SameValue
          CFI VB SameValue
          CFI B SameValue
          CFI A SameValue
          CFI PSW SameValue
          CFI DPL0 SameValue
          CFI DPH0 SameValue
          CFI R0 SameValue
          CFI R1 SameValue
          CFI R2 SameValue
          CFI R3 SameValue
          CFI R4 SameValue
          CFI R5 SameValue
          CFI R6 SameValue
          CFI R7 SameValue
          CFI V0 SameValue
          CFI V1 SameValue
          CFI V2 SameValue
          CFI V3 SameValue
          CFI V4 SameValue
          CFI V5 SameValue
          CFI V6 SameValue
          CFI V7 SameValue
          CFI PSPH Undefined
          CFI PSPL Undefined
          CFI XSPH Undefined
          CFI XSPL Undefined
          CFI ?RET Concat
          CFI ?BRET_EXT SameValue
          CFI ?RET_HIGH Frame(CFA_SP, 2)
          CFI ?RET_LOW Frame(CFA_SP, 1)
          CFI EndCommon cfiCommon1
        
AF_DataRequest      SYMBOL "AF_DataRequest"
`??AF_DataRequest::?relay` SYMBOL "?relay", AF_DataRequest
HalLedSet           SYMBOL "HalLedSet"
`??HalLedSet::?relay` SYMBOL "?relay", HalLedSet
HalUARTWrite        SYMBOL "HalUARTWrite"
`??HalUARTWrite::?relay` SYMBOL "?relay", HalUARTWrite
NLME_GetShortAddr   SYMBOL "NLME_GetShortAddr"
`??NLME_GetShortAddr::?relay` SYMBOL "?relay", NLME_GetShortAddr
RegisterForKeys     SYMBOL "RegisterForKeys"
`??RegisterForKeys::?relay` SYMBOL "?relay", RegisterForKeys
USER_Uart0_Init     SYMBOL "USER_Uart0_Init"
`??USER_Uart0_Init::?relay` SYMBOL "?relay", USER_Uart0_Init
ZDO_RegisterForZDOMsg SYMBOL "ZDO_RegisterForZDOMsg"
`??ZDO_RegisterForZDOMsg::?relay` SYMBOL "?relay", ZDO_RegisterForZDOMsg
ZDP_EndDeviceBindReq SYMBOL "ZDP_EndDeviceBindReq"
`??ZDP_EndDeviceBindReq::?relay` SYMBOL "?relay", ZDP_EndDeviceBindReq
ZDP_MatchDescReq    SYMBOL "ZDP_MatchDescReq"
`??ZDP_MatchDescReq::?relay` SYMBOL "?relay", ZDP_MatchDescReq
afRegister          SYMBOL "afRegister"
`??afRegister::?relay` SYMBOL "?relay", afRegister
osal_memcpy         SYMBOL "osal_memcpy"
`??osal_memcpy::?relay` SYMBOL "?relay", osal_memcpy
osal_msg_deallocate SYMBOL "osal_msg_deallocate"
`??osal_msg_deallocate::?relay` SYMBOL "?relay", osal_msg_deallocate
osal_msg_receive    SYMBOL "osal_msg_receive"
`??osal_msg_receive::?relay` SYMBOL "?relay", osal_msg_receive
osal_start_timerEx  SYMBOL "osal_start_timerEx"
`??osal_start_timerEx::?relay` SYMBOL "?relay", osal_start_timerEx
osal_strlen         SYMBOL "osal_strlen"
`??osal_strlen::?relay` SYMBOL "?relay", osal_strlen
printf              SYMBOL "printf"
`??printf::?relay`  SYMBOL "?relay", printf
user_state_change   SYMBOL "user_state_change"
`??user_state_change::?relay` SYMBOL "?relay", user_state_change
ProjectApp_Init     SYMBOL "ProjectApp_Init"
`??ProjectApp_Init::?relay` SYMBOL "?relay", ProjectApp_Init
ProjectApp_ProcessEvent SYMBOL "ProjectApp_ProcessEvent"
`??ProjectApp_ProcessEvent::?relay` SYMBOL "?relay", ProjectApp_ProcessEvent

        EXTERN `??AF_DataRequest::?relay`
        FUNCTION `??AF_DataRequest::?relay`,00H
        EXTERN `??HalLedSet::?relay`
        FUNCTION `??HalLedSet::?relay`,00H
        EXTERN `??HalUARTWrite::?relay`
        FUNCTION `??HalUARTWrite::?relay`,00H
        EXTERN `??NLME_GetShortAddr::?relay`
        FUNCTION `??NLME_GetShortAddr::?relay`,00H
        EXTERN `??RegisterForKeys::?relay`
        FUNCTION `??RegisterForKeys::?relay`,00H
        EXTERN `??USER_Uart0_Init::?relay`
        FUNCTION `??USER_Uart0_Init::?relay`,00H
        EXTERN `??ZDO_RegisterForZDOMsg::?relay`
        FUNCTION `??ZDO_RegisterForZDOMsg::?relay`,00H
        EXTERN `??ZDP_EndDeviceBindReq::?relay`
        FUNCTION `??ZDP_EndDeviceBindReq::?relay`,00H
        EXTERN `??ZDP_MatchDescReq::?relay`
        FUNCTION `??ZDP_MatchDescReq::?relay`,00H
        EXTERN `??afRegister::?relay`
        FUNCTION `??afRegister::?relay`,00H
        EXTERN `??osal_memcpy::?relay`
        FUNCTION `??osal_memcpy::?relay`,00H
        EXTERN `??osal_msg_deallocate::?relay`
        FUNCTION `??osal_msg_deallocate::?relay`,00H
        EXTERN `??osal_msg_receive::?relay`
        FUNCTION `??osal_msg_receive::?relay`,00H
        EXTERN `??osal_start_timerEx::?relay`
        FUNCTION `??osal_start_timerEx::?relay`,00H
        EXTERN `??osal_strlen::?relay`
        FUNCTION `??osal_strlen::?relay`,00H
        EXTERN `??printf::?relay`
        FUNCTION `??printf::?relay`,00H
        EXTERN `??user_state_change::?relay`
        FUNCTION `??user_state_change::?relay`,00H
        EXTERN AF_DataRequest
        FUNCTION AF_DataRequest,0202H
        ARGFRAME ISTACK, 0, STACK
        ARGFRAME PSTACK, 0, STACK
        ARGFRAME XSTACK, 41, STACK
        ARGFRAME IOVERLAY, 0, STATIC
        ARGFRAME DOVERLAY, 0, STATIC
        EXTERN HalLedSet
        FUNCTION HalLedSet,0202H
        ARGFRAME ISTACK, 0, STACK
        ARGFRAME PSTACK, 0, STACK
        ARGFRAME XSTACK, 32, STACK
        ARGFRAME IOVERLAY, 0, STATIC
        ARGFRAME DOVERLAY, 0, STATIC
        EXTERN HalUARTWrite
        FUNCTION HalUARTWrite,0202H
        ARGFRAME ISTACK, 0, STACK
        ARGFRAME PSTACK, 0, STACK
        ARGFRAME XSTACK, 17, STACK
        ARGFRAME IOVERLAY, 0, STATIC
        ARGFRAME DOVERLAY, 0, STATIC
        EXTERN NLME_GetShortAddr
        FUNCTION NLME_GetShortAddr,0202H
        ARGFRAME ISTACK, 0, STACK
        ARGFRAME PSTACK, 0, STACK
        ARGFRAME XSTACK, 32, STACK
        ARGFRAME IOVERLAY, 0, STATIC
        ARGFRAME DOVERLAY, 0, STATIC
        EXTERN RegisterForKeys
        FUNCTION RegisterForKeys,0202H
        ARGFRAME ISTACK, 0, STACK
        ARGFRAME PSTACK, 0, STACK
        ARGFRAME XSTACK, 9, STACK
        ARGFRAME IOVERLAY, 0, STATIC
        ARGFRAME DOVERLAY, 0, STATIC
        EXTERN USER_Uart0_Init
        FUNCTION USER_Uart0_Init,0202H
        ARGFRAME ISTACK, 0, STACK
        ARGFRAME PSTACK, 0, STACK
        ARGFRAME XSTACK, 9, STACK
        ARGFRAME IOVERLAY, 0, STATIC
        ARGFRAME DOVERLAY, 0, STATIC
        EXTERN ZDO_RegisterForZDOMsg
        FUNCTION ZDO_RegisterForZDOMsg,0202H
        ARGFRAME ISTACK, 0, STACK
        ARGFRAME PSTACK, 0, STACK
        ARGFRAME XSTACK, 9, STACK
        ARGFRAME IOVERLAY, 0, STATIC
        ARGFRAME DOVERLAY, 0, STATIC
        EXTERN ZDP_EndDeviceBindReq
        FUNCTION ZDP_EndDeviceBindReq,0202H
        ARGFRAME ISTACK, 0, STACK
        ARGFRAME PSTACK, 0, STACK
        ARGFRAME XSTACK, 41, STACK
        ARGFRAME IOVERLAY, 0, STATIC
        ARGFRAME DOVERLAY, 0, STATIC
        EXTERN ZDP_MatchDescReq
        FUNCTION ZDP_MatchDescReq,0202H
        ARGFRAME ISTACK, 0, STACK
        ARGFRAME PSTACK, 0, STACK
        ARGFRAME XSTACK, 40, STACK
        ARGFRAME IOVERLAY, 0, STATIC
        ARGFRAME DOVERLAY, 0, STATIC
        EXTERN afRegister
        FUNCTION afRegister,0202H
        ARGFRAME ISTACK, 0, STACK
        ARGFRAME PSTACK, 0, STACK
        ARGFRAME XSTACK, 9, STACK
        ARGFRAME IOVERLAY, 0, STATIC
        ARGFRAME DOVERLAY, 0, STATIC
        EXTERN osal_memcpy
        FUNCTION osal_memcpy,0202H
        ARGFRAME ISTACK, 0, STACK
        ARGFRAME PSTACK, 0, STACK
        ARGFRAME XSTACK, 20, STACK
        ARGFRAME IOVERLAY, 0, STATIC
        ARGFRAME DOVERLAY, 0, STATIC
        EXTERN osal_msg_deallocate
        FUNCTION osal_msg_deallocate,0202H
        ARGFRAME ISTACK, 0, STACK
        ARGFRAME PSTACK, 0, STACK
        ARGFRAME XSTACK, 24, STACK
        ARGFRAME IOVERLAY, 0, STATIC
        ARGFRAME DOVERLAY, 0, STATIC
        EXTERN osal_msg_receive
        FUNCTION osal_msg_receive,0202H
        ARGFRAME ISTACK, 0, STACK
        ARGFRAME PSTACK, 0, STACK
        ARGFRAME XSTACK, 24, STACK
        ARGFRAME IOVERLAY, 0, STATIC
        ARGFRAME DOVERLAY, 0, STATIC
        EXTERN osal_start_timerEx
        FUNCTION osal_start_timerEx,0202H
        ARGFRAME ISTACK, 0, STACK
        ARGFRAME PSTACK, 0, STACK
        ARGFRAME XSTACK, 24, STACK
        ARGFRAME IOVERLAY, 0, STATIC
        ARGFRAME DOVERLAY, 0, STATIC
        EXTERN osal_strlen
        FUNCTION osal_strlen,0202H
        ARGFRAME ISTACK, 0, STACK
        ARGFRAME PSTACK, 0, STACK
        ARGFRAME XSTACK, 32, STACK
        ARGFRAME IOVERLAY, 0, STATIC
        ARGFRAME DOVERLAY, 0, STATIC
        EXTERN printf
        FUNCTION printf,0202H
        ARGFRAME ISTACK, 0, STACK
        ARGFRAME PSTACK, 0, STACK
        ARGFRAME XSTACK, 24, STACK
        ARGFRAME IOVERLAY, 0, STATIC
        ARGFRAME DOVERLAY, 0, STATIC
        EXTERN user_state_change
        FUNCTION user_state_change,0202H
        ARGFRAME ISTACK, 0, STACK
        ARGFRAME PSTACK, 0, STACK
        ARGFRAME XSTACK, 24, STACK
        ARGFRAME IOVERLAY, 0, STATIC
        ARGFRAME DOVERLAY, 0, STATIC

// E:\GitHub\DHT11-Router\ZStack-CC2530-2.5.1a\Projects\zstack\Samples\ProjectApp\Source\ProjectApp.c
//    1 #include "OSAL.h"
//    2 #include "AF.h"
//    3 #include "ZDApp.h"
//    4 #include "ZDObject.h"
//    5 #include "ZDProfile.h"
//    6 #include "string.h"
//    7 
//    8 #include "ProjectApp.h"
//    9 #include "DebugTrace.h"
//   10 
//   11 #if !defined( WIN32 )
//   12   #include "OnBoard.h"

        ASEGN SFR_AN:DATA:NOROOT,080H
// union <unnamed> volatile __sfr _A_P0
_A_P0:
        DATA8
        DS 1

        ASEGN SFR_AN:DATA:NOROOT,0f3H
// unsigned char volatile __sfr P0SEL
P0SEL:
        DATA8
        DS 1

        ASEGN SFR_AN:DATA:NOROOT,0fdH
// unsigned char volatile __sfr P0DIR
P0DIR:
        DATA8
        DS 1
//   13 #endif
//   14 
//   15 /* HAL */
//   16 #include "hal_lcd.h"
//   17 #include "hal_led.h"
//   18 #include "hal_key.h"
//   19 #include "hal_uart.h"
//   20 
//   21 /* RTOS */
//   22 #if defined( IAR_ARMCM3_LM )
//   23 #include "RTOS_App.h"
//   24 #endif  
//   25 
//   26 #include "user_uart0.h"
//   27 #include "user_printf.h"
//   28 #include "user_api.h"
//   29 /*********************************************************************
//   30  * MACROS
//   31  */
//   32 
//   33 /*********************************************************************
//   34  * CONSTANTS
//   35  */
//   36 
//   37 /*********************************************************************
//   38  * TYPEDEFS
//   39  */
//   40 
//   41 /*********************************************************************
//   42  * GLOBAL VARIABLES
//   43  */
//   44 #define LAMP_PIN     P0_5  //定义P0.5口为继电器输入端
//   45 
//   46 static uint8 GetLamp( void );
//   47 static uint8 IOInit(void);
//   48 // This list should be filled with Application specific Cluster IDs.

        RSEG XDATA_ROM_C:CONST:REORDER:NOROOT(0)
        DATA16
//   49 const cId_t ProjectApp_ClusterList[PROJECTAPP_MAX_CLUSTERS] =
ProjectApp_ClusterList:
        DW 1
//   50 {
//   51   PROJECTAPP_CLUSTERID
//   52 };
//   53 

        RSEG XDATA_ROM_C:CONST:REORDER:NOROOT(0)
        DATA8
//   54 const SimpleDescriptionFormat_t ProjectApp_SimpleDesc =
ProjectApp_SimpleDesc:
        DB 10
        DATA16
        DW 3844
        DW 1
        DATA8
        DB 0
        DB 1
        DATA16
        DW ProjectApp_ClusterList
        DATA8
        DB 1
        DATA16
        DW ProjectApp_ClusterList
//   55 {
//   56   PROJECTAPP_ENDPOINT,              //  int Endpoint;
//   57   PROJECTAPP_PROFID,                //  uint16 AppProfId[2];
//   58   PROJECTAPP_DEVICEID,              //  uint16 AppDeviceId[2];
//   59   PROJECTAPP_DEVICE_VERSION,        //  int   AppDevVer:4;
//   60   PROJECTAPP_FLAGS,                 //  int   AppFlags:4;
//   61   PROJECTAPP_MAX_CLUSTERS,          //  byte  AppNumInClusters;
//   62   (cId_t *)ProjectApp_ClusterList,  //  byte *pAppInClusterList;
//   63   PROJECTAPP_MAX_CLUSTERS,          //  byte  AppNumInClusters;
//   64   (cId_t *)ProjectApp_ClusterList   //  byte *pAppInClusterList;
//   65 };
//   66 
//   67 // This is the Endpoint/Interface description.  It is defined here, but
//   68 // filled-in in ProjectApp_Init().  Another way to go would be to fill
//   69 // in the structure here and make it a "const" (in code space).  The
//   70 // way it's defined in this sample app it is define in RAM.

        RSEG XDATA_Z:XDATA:NOROOT(0)
        DATA8
//   71 endPointDesc_t ProjectApp_epDesc;
ProjectApp_epDesc:
        DS 6
        REQUIRE __INIT_XDATA_Z
//   72 
//   73 /*********************************************************************
//   74  * EXTERNAL VARIABLES
//   75  */
//   76 
//   77 /*********************************************************************
//   78  * EXTERNAL FUNCTIONS
//   79  */
//   80 
//   81 /*********************************************************************
//   82  * LOCAL VARIABLES
//   83  */

        RSEG XDATA_Z:XDATA:NOROOT(0)
        DATA8
//   84 byte ProjectApp_TaskID;   // Task ID for internal task/event processing
ProjectApp_TaskID:
        DS 1
        REQUIRE __INIT_XDATA_Z
//   85                           // This variable will be received when
//   86                           // ProjectApp_Init() is called.

        RSEG XDATA_Z:XDATA:NOROOT(0)
        DATA8
//   87 devStates_t ProjectApp_NwkState;
ProjectApp_NwkState:
        DS 1
        REQUIRE __INIT_XDATA_Z
//   88 
//   89 

        RSEG XDATA_Z:XDATA:NOROOT(0)
        DATA8
//   90 byte ProjectApp_TransID;  // This is the unique message ID (counter)
ProjectApp_TransID:
        DS 1
        REQUIRE __INIT_XDATA_Z
//   91 

        RSEG XDATA_Z:XDATA:NOROOT(0)
        DATA8
//   92 afAddrType_t ProjectApp_DstAddr;
ProjectApp_DstAddr:
        DS 12
        REQUIRE __INIT_XDATA_Z
//   93 
//   94 /*********************************************************************
//   95  * LOCAL FUNCTIONS
//   96  */
//   97 
//   98 static void ProjectApp_HandleKeys( byte shift, byte keys );
//   99 static void ProjectApp_SendTheMessage( void );
//  100 static void ProjectApp_ProcessZDOMsgs( zdoIncomingMsg_t *inMsg );
//  101 static void ProjectApp_SendBindcast( void );
//  102 static void ProjectApp_MessageMSGCB( afIncomingMSGPacket_t *pkt );
//  103 #if defined( IAR_ARMCM3_LM )
//  104 static void ProjectApp_ProcessRtosMessage( void );
//  105 #endif
//  106 
//  107 /*********************************************************************
//  108  * NETWORK LAYER CALLBACKS
//  109  */
//  110 
//  111 /*********************************************************************
//  112  * PUBLIC FUNCTIONS
//  113  */
//  114 
//  115 /*********************************************************************
//  116  * @fn      ProjectApp_Init
//  117  *
//  118  * @brief   Initialization function for the Project App Task.
//  119  *          This is called during initialization and should contain
//  120  *          any application specific initialization (ie. hardware
//  121  *          initialization/setup, table initialization, power up
//  122  *          notificaiton ... ).
//  123  *
//  124  * @param   task_id - the ID assigned by OSAL.  This ID should be
//  125  *                    used to send messages and set timers.
//  126  *
//  127  * @return  none
//  128  */

        RSEG BANKED_CODE:HUGECODE:NOROOT(0)
//  129 void ProjectApp_Init( uint8 task_id )
ProjectApp_Init:
          CFI Block cfiBlock0 Using cfiCommon0
          CFI Function ProjectApp_Init
        CODE
//  130 {
        FUNCALL ProjectApp_Init, afRegister
        LOCFRAME ISTACK, 0, STACK
        LOCFRAME PSTACK, 0, STACK
        LOCFRAME XSTACK, 9, STACK
        LOCFRAME IOVERLAY, 0, STATIC
        LOCFRAME DOVERLAY, 0, STATIC
        ARGFRAME ISTACK, 0, STACK
        ARGFRAME PSTACK, 0, STACK
        ARGFRAME XSTACK, 9, STACK
        ARGFRAME IOVERLAY, 0, STATIC
        ARGFRAME DOVERLAY, 0, STATIC
        FUNCALL ProjectApp_Init, RegisterForKeys
        LOCFRAME ISTACK, 0, STACK
        LOCFRAME PSTACK, 0, STACK
        LOCFRAME XSTACK, 9, STACK
        LOCFRAME IOVERLAY, 0, STATIC
        LOCFRAME DOVERLAY, 0, STATIC
        ARGFRAME ISTACK, 0, STACK
        ARGFRAME PSTACK, 0, STACK
        ARGFRAME XSTACK, 9, STACK
        ARGFRAME IOVERLAY, 0, STATIC
        ARGFRAME DOVERLAY, 0, STATIC
        FUNCALL ProjectApp_Init, ZDO_RegisterForZDOMsg
        LOCFRAME ISTACK, 0, STACK
        LOCFRAME PSTACK, 0, STACK
        LOCFRAME XSTACK, 9, STACK
        LOCFRAME IOVERLAY, 0, STATIC
        LOCFRAME DOVERLAY, 0, STATIC
        ARGFRAME ISTACK, 0, STACK
        ARGFRAME PSTACK, 0, STACK
        ARGFRAME XSTACK, 9, STACK
        ARGFRAME IOVERLAY, 0, STATIC
        ARGFRAME DOVERLAY, 0, STATIC
        FUNCALL ProjectApp_Init, ZDO_RegisterForZDOMsg
        LOCFRAME ISTACK, 0, STACK
        LOCFRAME PSTACK, 0, STACK
        LOCFRAME XSTACK, 9, STACK
        LOCFRAME IOVERLAY, 0, STATIC
        LOCFRAME DOVERLAY, 0, STATIC
        ARGFRAME ISTACK, 0, STACK
        ARGFRAME PSTACK, 0, STACK
        ARGFRAME XSTACK, 9, STACK
        ARGFRAME IOVERLAY, 0, STATIC
        ARGFRAME DOVERLAY, 0, STATIC
        FUNCALL ProjectApp_Init, USER_Uart0_Init
        LOCFRAME ISTACK, 0, STACK
        LOCFRAME PSTACK, 0, STACK
        LOCFRAME XSTACK, 9, STACK
        LOCFRAME IOVERLAY, 0, STATIC
        LOCFRAME DOVERLAY, 0, STATIC
        ARGFRAME ISTACK, 0, STACK
        ARGFRAME PSTACK, 0, STACK
        ARGFRAME XSTACK, 9, STACK
        ARGFRAME IOVERLAY, 0, STATIC
        ARGFRAME DOVERLAY, 0, STATIC
        FUNCALL ProjectApp_Init, ZDO_RegisterForZDOMsg
        LOCFRAME ISTACK, 0, STACK
        LOCFRAME PSTACK, 0, STACK
        LOCFRAME XSTACK, 9, STACK
        LOCFRAME IOVERLAY, 0, STATIC
        LOCFRAME DOVERLAY, 0, STATIC
        ARGFRAME ISTACK, 0, STACK
        ARGFRAME PSTACK, 0, STACK
        ARGFRAME XSTACK, 9, STACK
        ARGFRAME IOVERLAY, 0, STATIC
        ARGFRAME DOVERLAY, 0, STATIC
        MOV       A,#-0x9
        LCALL     ?BANKED_ENTER_XDATA
          CFI DPH0 load(1, XDATA, add(CFA_XSP16, literal(-1)))
          CFI DPL0 load(1, XDATA, add(CFA_XSP16, literal(-2)))
          CFI ?BRET_EXT load(1, XDATA, add(CFA_XSP16, literal(-3)))
          CFI ?RET_HIGH load(1, XDATA, add(CFA_XSP16, literal(-4)))
          CFI ?RET_LOW load(1, XDATA, add(CFA_XSP16, literal(-5)))
          CFI R7 load(1, XDATA, add(CFA_XSP16, literal(-6)))
          CFI V0 load(1, XDATA, add(CFA_XSP16, literal(-7)))
          CFI VB load(1, XDATA, add(CFA_XSP16, literal(-8)))
          CFI R6 load(1, XDATA, add(CFA_XSP16, literal(-9)))
          CFI CFA_SP SP+0
          CFI CFA_XSP16 add(XSP16, 9)
        ; Saved register size: 9
        ; Auto size: 0
        MOV       A,R1
//  131   ProjectApp_TaskID = task_id;
        MOV       DPTR,#ProjectApp_TaskID
        MOVX      @DPTR,A
//  132   ProjectApp_NwkState = DEV_INIT;
        MOV       DPTR,#ProjectApp_NwkState
        MOV       A,#0x1
        MOVX      @DPTR,A
//  133   ProjectApp_TransID = 0;
        MOV       DPTR,#ProjectApp_TransID
        CLR       A
        MOVX      @DPTR,A
//  134 
//  135   // Device hardware initialization can be added here or in main() (Zmain.c).
//  136   // If the hardware is application specific - add it here.
//  137   // If the hardware is other parts of the device add it in main().
//  138 
//  139   ProjectApp_DstAddr.addrMode = (afAddrMode_t)AddrNotPresent;
        LCALL     ?Subroutine1 & 0xFFFF
//  140   ProjectApp_DstAddr.endPoint = 0;
//  141   ProjectApp_DstAddr.addr.shortAddr = 0;
//  142 
//  143   // Fill out the endpoint description.
//  144   ProjectApp_epDesc.endPoint = PROJECTAPP_ENDPOINT;
??CrossCallReturnLabel_2:
        MOV       DPTR,#ProjectApp_epDesc
        MOV       A,#0xa
        MOVX      @DPTR,A
//  145   ProjectApp_epDesc.task_id = &ProjectApp_TaskID;
        INC       DPTR
        MOV       A,#ProjectApp_TaskID & 0xff
        MOVX      @DPTR,A
        INC       DPTR
        MOV       A,#(ProjectApp_TaskID >> 8) & 0xff
        MOVX      @DPTR,A
//  146   ProjectApp_epDesc.simpleDesc
//  147             = (SimpleDescriptionFormat_t *)&ProjectApp_SimpleDesc;
        INC       DPTR
        MOV       A,#ProjectApp_SimpleDesc & 0xff
        MOVX      @DPTR,A
        INC       DPTR
        MOV       A,#(ProjectApp_SimpleDesc >> 8) & 0xff
        MOVX      @DPTR,A
//  148   ProjectApp_epDesc.latencyReq = noLatencyReqs;
        INC       DPTR
        CLR       A
        MOVX      @DPTR,A
//  149 
//  150   // Register the endpoint description with the AF
//  151   afRegister( &ProjectApp_epDesc );
        ; Setup parameters for call to function afRegister
        MOV       R2,#ProjectApp_epDesc & 0xff
        MOV       R3,#(ProjectApp_epDesc >> 8) & 0xff
        LCALL     `??afRegister::?relay`; Banked call to: afRegister
//  152 
//  153   // Register for all key events - This app will handle all key events
//  154   RegisterForKeys( ProjectApp_TaskID );
        ; Setup parameters for call to function RegisterForKeys
        MOV       DPTR,#ProjectApp_TaskID
        MOVX      A,@DPTR
        MOV       R1,A
        LCALL     `??RegisterForKeys::?relay`; Banked call to: RegisterForKeys
//  155 
//  156   // Update the display
//  157 #if defined ( LCD_SUPPORTED )
//  158   HalLcdWriteString( "ProjectApp", HAL_LCD_LINE_1 );
//  159 #endif
//  160 
//  161   ZDO_RegisterForZDOMsg( ProjectApp_TaskID, End_Device_Bind_rsp );
        ; Setup parameters for call to function ZDO_RegisterForZDOMsg
        LCALL     ?Subroutine2 & 0xFFFF
//  162   ZDO_RegisterForZDOMsg( ProjectApp_TaskID, Match_Desc_rsp );
??CrossCallReturnLabel_6:
        ; Setup parameters for call to function ZDO_RegisterForZDOMsg
        MOV       R2,#0x6
        LCALL     ??Subroutine4_0 & 0xFFFF
//  163 
//  164 #if defined( IAR_ARMCM3_LM )
//  165   // Register this task with RTOS task initiator
//  166   RTOS_RegisterApp( task_id, PROJECTAPP_RTOS_MSG_EVT );
//  167 #endif
//  168   
//  169    USER_Uart0_Init(HAL_UART_BR_115200);
??CrossCallReturnLabel_8:
        ; Setup parameters for call to function USER_Uart0_Init
        MOV       R1,#0x4
        LCALL     `??USER_Uart0_Init::?relay`; Banked call to: USER_Uart0_Init
//  170    
//  171 ZDO_RegisterForZDOMsg( ProjectApp_TaskID, End_Device_Bind_rsp );
        ; Setup parameters for call to function ZDO_RegisterForZDOMsg
        LCALL     ?Subroutine2 & 0xFFFF
//  172 }
??CrossCallReturnLabel_7:
        MOV       R7,#0x1
        LJMP      ?BANKED_LEAVE_XDATA
          CFI EndBlock cfiBlock0

        RSEG BANKED_CODE:HUGECODE:NOROOT(0)
?Subroutine2:
          CFI Block cfiCond1 Using cfiCommon0
          CFI Function ProjectApp_Init
          CFI Conditional ??CrossCallReturnLabel_6
          CFI R6 load(1, XDATA, add(CFA_XSP16, literal(-9)))
          CFI VB load(1, XDATA, add(CFA_XSP16, literal(-8)))
          CFI V0 load(1, XDATA, add(CFA_XSP16, literal(-7)))
          CFI R7 load(1, XDATA, add(CFA_XSP16, literal(-6)))
          CFI ?RET_LOW load(1, XDATA, add(CFA_XSP16, literal(-5)))
          CFI ?RET_HIGH load(1, XDATA, add(CFA_XSP16, literal(-4)))
          CFI ?BRET_EXT load(1, XDATA, add(CFA_XSP16, literal(-3)))
          CFI DPL0 load(1, XDATA, add(CFA_XSP16, literal(-2)))
          CFI DPH0 load(1, XDATA, add(CFA_XSP16, literal(-1)))
          CFI CFA_SP SP+-2
          CFI CFA_XSP16 add(XSP16, 9)
          CFI Block cfiCond2 Using cfiCommon0
          CFI (cfiCond2) Function ProjectApp_Init
          CFI (cfiCond2) Conditional ??CrossCallReturnLabel_7
          CFI (cfiCond2) R6 load(1, XDATA, add(CFA_XSP16, literal(-9)))
          CFI (cfiCond2) VB load(1, XDATA, add(CFA_XSP16, literal(-8)))
          CFI (cfiCond2) V0 load(1, XDATA, add(CFA_XSP16, literal(-7)))
          CFI (cfiCond2) R7 load(1, XDATA, add(CFA_XSP16, literal(-6)))
          CFI (cfiCond2) ?RET_LOW load(1, XDATA, add(CFA_XSP16, literal(-5)))
          CFI (cfiCond2) ?RET_HIGH load(1, XDATA, add(CFA_XSP16, literal(-4)))
          CFI (cfiCond2) ?BRET_EXT load(1, XDATA, add(CFA_XSP16, literal(-3)))
          CFI (cfiCond2) DPL0 load(1, XDATA, add(CFA_XSP16, literal(-2)))
          CFI (cfiCond2) DPH0 load(1, XDATA, add(CFA_XSP16, literal(-1)))
          CFI (cfiCond2) CFA_SP SP+-2
          CFI (cfiCond2) CFA_XSP16 add(XSP16, 9)
          CFI Block cfiPicker3 Using cfiCommon1
          CFI (cfiPicker3) NoFunction
          CFI (cfiPicker3) Picker
        MOV       R2,#0x20
          CFI EndBlock cfiCond1
          CFI EndBlock cfiCond2
          CFI EndBlock cfiPicker3
        REQUIRE ??Subroutine4_0
        ; // Fall through to label ??Subroutine4_0

        RSEG BANKED_CODE:HUGECODE:NOROOT(0)
??Subroutine4_0:
          CFI Block cfiCond4 Using cfiCommon0
          CFI Function ProjectApp_Init
          CFI Conditional ??CrossCallReturnLabel_8
          CFI R6 load(1, XDATA, add(CFA_XSP16, literal(-9)))
          CFI VB load(1, XDATA, add(CFA_XSP16, literal(-8)))
          CFI V0 load(1, XDATA, add(CFA_XSP16, literal(-7)))
          CFI R7 load(1, XDATA, add(CFA_XSP16, literal(-6)))
          CFI ?RET_LOW load(1, XDATA, add(CFA_XSP16, literal(-5)))
          CFI ?RET_HIGH load(1, XDATA, add(CFA_XSP16, literal(-4)))
          CFI ?BRET_EXT load(1, XDATA, add(CFA_XSP16, literal(-3)))
          CFI DPL0 load(1, XDATA, add(CFA_XSP16, literal(-2)))
          CFI DPH0 load(1, XDATA, add(CFA_XSP16, literal(-1)))
          CFI CFA_SP SP+-2
          CFI CFA_XSP16 add(XSP16, 9)
          CFI Block cfiCond5 Using cfiCommon0
          CFI (cfiCond5) Function ProjectApp_Init
          CFI (cfiCond5) Conditional ??CrossCallReturnLabel_6
          CFI (cfiCond5) R6 load(1, XDATA, add(CFA_XSP16, literal(-9)))
          CFI (cfiCond5) VB load(1, XDATA, add(CFA_XSP16, literal(-8)))
          CFI (cfiCond5) V0 load(1, XDATA, add(CFA_XSP16, literal(-7)))
          CFI (cfiCond5) R7 load(1, XDATA, add(CFA_XSP16, literal(-6)))
          CFI (cfiCond5) ?RET_LOW load(1, XDATA, add(CFA_XSP16, literal(-5)))
          CFI (cfiCond5) ?RET_HIGH load(1, XDATA, add(CFA_XSP16, literal(-4)))
          CFI (cfiCond5) ?BRET_EXT load(1, XDATA, add(CFA_XSP16, literal(-3)))
          CFI (cfiCond5) DPL0 load(1, XDATA, add(CFA_XSP16, literal(-2)))
          CFI (cfiCond5) DPH0 load(1, XDATA, add(CFA_XSP16, literal(-1)))
          CFI (cfiCond5) CFA_SP SP+-2
          CFI (cfiCond5) CFA_XSP16 add(XSP16, 9)
          CFI Block cfiCond6 Using cfiCommon0
          CFI (cfiCond6) Function ProjectApp_Init
          CFI (cfiCond6) Conditional ??CrossCallReturnLabel_7
          CFI (cfiCond6) R6 load(1, XDATA, add(CFA_XSP16, literal(-9)))
          CFI (cfiCond6) VB load(1, XDATA, add(CFA_XSP16, literal(-8)))
          CFI (cfiCond6) V0 load(1, XDATA, add(CFA_XSP16, literal(-7)))
          CFI (cfiCond6) R7 load(1, XDATA, add(CFA_XSP16, literal(-6)))
          CFI (cfiCond6) ?RET_LOW load(1, XDATA, add(CFA_XSP16, literal(-5)))
          CFI (cfiCond6) ?RET_HIGH load(1, XDATA, add(CFA_XSP16, literal(-4)))
          CFI (cfiCond6) ?BRET_EXT load(1, XDATA, add(CFA_XSP16, literal(-3)))
          CFI (cfiCond6) DPL0 load(1, XDATA, add(CFA_XSP16, literal(-2)))
          CFI (cfiCond6) DPH0 load(1, XDATA, add(CFA_XSP16, literal(-1)))
          CFI (cfiCond6) CFA_SP SP+-2
          CFI (cfiCond6) CFA_XSP16 add(XSP16, 9)
          CFI Block cfiPicker7 Using cfiCommon1
          CFI (cfiPicker7) NoFunction
          CFI (cfiPicker7) Picker
        MOV       R3,#-0x80
        MOV       DPTR,#ProjectApp_TaskID
        MOVX      A,@DPTR
        MOV       R1,A
        LCALL     `??ZDO_RegisterForZDOMsg::?relay`; Banked call to: ZDO_RegisterForZDOMsg
        RET
          CFI EndBlock cfiCond4
          CFI EndBlock cfiCond5
          CFI EndBlock cfiCond6
          CFI EndBlock cfiPicker7
//  173 
//  174 /*********************************************************************
//  175  * @fn      ProjectApp_ProcessEvent
//  176  *
//  177  * @brief   Project Application Task event processor.  This function
//  178  *          is called to process all events for the task.  Events
//  179  *          include timers, messages and any other user defined events.
//  180  *
//  181  * @param   task_id  - The OSAL assigned task ID.
//  182  * @param   events - events to process.  This is a bit map and can
//  183  *                   contain more than one event.
//  184  *
//  185  * @return  none
//  186  */

        RSEG BANKED_CODE:HUGECODE:NOROOT(0)
//  187 uint16 ProjectApp_ProcessEvent( uint8 task_id, uint16 events )
ProjectApp_ProcessEvent:
          CFI Block cfiBlock8 Using cfiCommon0
          CFI Function ProjectApp_ProcessEvent
        CODE
//  188 {
        FUNCALL ProjectApp_ProcessEvent, osal_msg_receive
        LOCFRAME ISTACK, 0, STACK
        LOCFRAME PSTACK, 0, STACK
        LOCFRAME XSTACK, 24, STACK
        LOCFRAME IOVERLAY, 0, STATIC
        LOCFRAME DOVERLAY, 0, STATIC
        ARGFRAME ISTACK, 0, STACK
        ARGFRAME PSTACK, 0, STACK
        ARGFRAME XSTACK, 24, STACK
        ARGFRAME IOVERLAY, 0, STATIC
        ARGFRAME DOVERLAY, 0, STATIC
        FUNCALL ProjectApp_ProcessEvent, user_state_change
        LOCFRAME ISTACK, 0, STACK
        LOCFRAME PSTACK, 0, STACK
        LOCFRAME XSTACK, 24, STACK
        LOCFRAME IOVERLAY, 0, STATIC
        LOCFRAME DOVERLAY, 0, STATIC
        ARGFRAME ISTACK, 0, STACK
        ARGFRAME PSTACK, 0, STACK
        ARGFRAME XSTACK, 24, STACK
        ARGFRAME IOVERLAY, 0, STATIC
        ARGFRAME DOVERLAY, 0, STATIC
        FUNCALL ProjectApp_ProcessEvent, osal_msg_deallocate
        LOCFRAME ISTACK, 0, STACK
        LOCFRAME PSTACK, 0, STACK
        LOCFRAME XSTACK, 24, STACK
        LOCFRAME IOVERLAY, 0, STATIC
        LOCFRAME DOVERLAY, 0, STATIC
        ARGFRAME ISTACK, 0, STACK
        ARGFRAME PSTACK, 0, STACK
        ARGFRAME XSTACK, 24, STACK
        ARGFRAME IOVERLAY, 0, STATIC
        ARGFRAME DOVERLAY, 0, STATIC
        FUNCALL ProjectApp_ProcessEvent, osal_msg_receive
        LOCFRAME ISTACK, 0, STACK
        LOCFRAME PSTACK, 0, STACK
        LOCFRAME XSTACK, 24, STACK
        LOCFRAME IOVERLAY, 0, STATIC
        LOCFRAME DOVERLAY, 0, STATIC
        ARGFRAME ISTACK, 0, STACK
        ARGFRAME PSTACK, 0, STACK
        ARGFRAME XSTACK, 24, STACK
        ARGFRAME IOVERLAY, 0, STATIC
        ARGFRAME DOVERLAY, 0, STATIC
        FUNCALL ProjectApp_ProcessEvent, printf
        LOCFRAME ISTACK, 0, STACK
        LOCFRAME PSTACK, 0, STACK
        LOCFRAME XSTACK, 24, STACK
        LOCFRAME IOVERLAY, 0, STATIC
        LOCFRAME DOVERLAY, 0, STATIC
        ARGFRAME ISTACK, 0, STACK
        ARGFRAME PSTACK, 0, STACK
        ARGFRAME XSTACK, 24, STACK
        ARGFRAME IOVERLAY, 0, STATIC
        ARGFRAME DOVERLAY, 0, STATIC
        FUNCALL ProjectApp_ProcessEvent, printf
        LOCFRAME ISTACK, 0, STACK
        LOCFRAME PSTACK, 0, STACK
        LOCFRAME XSTACK, 24, STACK
        LOCFRAME IOVERLAY, 0, STATIC
        LOCFRAME DOVERLAY, 0, STATIC
        ARGFRAME ISTACK, 0, STACK
        ARGFRAME PSTACK, 0, STACK
        ARGFRAME XSTACK, 24, STACK
        ARGFRAME IOVERLAY, 0, STATIC
        ARGFRAME DOVERLAY, 0, STATIC
        FUNCALL ProjectApp_ProcessEvent, ProjectApp_HandleKeys
        LOCFRAME ISTACK, 0, STACK
        LOCFRAME PSTACK, 0, STACK
        LOCFRAME XSTACK, 24, STACK
        LOCFRAME IOVERLAY, 0, STATIC
        LOCFRAME DOVERLAY, 0, STATIC
        ARGFRAME ISTACK, 0, STACK
        ARGFRAME PSTACK, 0, STACK
        ARGFRAME XSTACK, 24, STACK
        ARGFRAME IOVERLAY, 0, STATIC
        ARGFRAME DOVERLAY, 0, STATIC
        FUNCALL ProjectApp_ProcessEvent, ProjectApp_MessageMSGCB
        LOCFRAME ISTACK, 0, STACK
        LOCFRAME PSTACK, 0, STACK
        LOCFRAME XSTACK, 24, STACK
        LOCFRAME IOVERLAY, 0, STATIC
        LOCFRAME DOVERLAY, 0, STATIC
        ARGFRAME ISTACK, 0, STACK
        ARGFRAME PSTACK, 0, STACK
        ARGFRAME XSTACK, 24, STACK
        ARGFRAME IOVERLAY, 0, STATIC
        ARGFRAME DOVERLAY, 0, STATIC
        FUNCALL ProjectApp_ProcessEvent, osal_strlen
        LOCFRAME ISTACK, 0, STACK
        LOCFRAME PSTACK, 0, STACK
        LOCFRAME XSTACK, 24, STACK
        LOCFRAME IOVERLAY, 0, STATIC
        LOCFRAME DOVERLAY, 0, STATIC
        ARGFRAME ISTACK, 0, STACK
        ARGFRAME PSTACK, 0, STACK
        ARGFRAME XSTACK, 24, STACK
        ARGFRAME IOVERLAY, 0, STATIC
        ARGFRAME DOVERLAY, 0, STATIC
        FUNCALL ProjectApp_ProcessEvent, AF_DataRequest
        LOCFRAME ISTACK, 0, STACK
        LOCFRAME PSTACK, 0, STACK
        LOCFRAME XSTACK, 33, STACK
        LOCFRAME IOVERLAY, 0, STATIC
        LOCFRAME DOVERLAY, 0, STATIC
        ARGFRAME ISTACK, 0, STACK
        ARGFRAME PSTACK, 0, STACK
        ARGFRAME XSTACK, 33, STACK
        ARGFRAME IOVERLAY, 0, STATIC
        ARGFRAME DOVERLAY, 0, STATIC
        FUNCALL ProjectApp_ProcessEvent, osal_start_timerEx
        LOCFRAME ISTACK, 0, STACK
        LOCFRAME PSTACK, 0, STACK
        LOCFRAME XSTACK, 24, STACK
        LOCFRAME IOVERLAY, 0, STATIC
        LOCFRAME DOVERLAY, 0, STATIC
        ARGFRAME ISTACK, 0, STACK
        ARGFRAME PSTACK, 0, STACK
        ARGFRAME XSTACK, 24, STACK
        ARGFRAME IOVERLAY, 0, STATIC
        ARGFRAME DOVERLAY, 0, STATIC
        REQUIRE ?V0
        REQUIRE ?V1
        REQUIRE ?V2
        REQUIRE ?V3
        MOV       A,#-0xc
        LCALL     ?BANKED_ENTER_XDATA
          CFI DPH0 load(1, XDATA, add(CFA_XSP16, literal(-1)))
          CFI DPL0 load(1, XDATA, add(CFA_XSP16, literal(-2)))
          CFI ?BRET_EXT load(1, XDATA, add(CFA_XSP16, literal(-3)))
          CFI ?RET_HIGH load(1, XDATA, add(CFA_XSP16, literal(-4)))
          CFI ?RET_LOW load(1, XDATA, add(CFA_XSP16, literal(-5)))
          CFI R7 load(1, XDATA, add(CFA_XSP16, literal(-6)))
          CFI V3 load(1, XDATA, add(CFA_XSP16, literal(-7)))
          CFI V2 load(1, XDATA, add(CFA_XSP16, literal(-8)))
          CFI V1 load(1, XDATA, add(CFA_XSP16, literal(-9)))
          CFI V0 load(1, XDATA, add(CFA_XSP16, literal(-10)))
          CFI VB load(1, XDATA, add(CFA_XSP16, literal(-11)))
          CFI R6 load(1, XDATA, add(CFA_XSP16, literal(-12)))
          CFI CFA_SP SP+0
          CFI CFA_XSP16 add(XSP16, 12)
        ; Saved register size: 12
        ; Auto size: 12
        MOV       A,#-0xc
        LCALL     ?ALLOC_XSTACK8
          CFI CFA_XSP16 add(XSP16, 24)
        MOV       A,R2
        MOV       R6,A
        MOV       A,R3
        MOV       R7,A
//  189   afIncomingMSGPacket_t *MSGpkt;
//  190   afDataConfirm_t *afDataConfirm;
//  191   
//  192   // Data Confirmation message fields
//  193   byte sentEP;
//  194   ZStatus_t sentStatus;
//  195   byte sentTransID;       // This should match the value sent
//  196   (void)task_id;  // Intentionally unreferenced parameter
//  197 
//  198   if ( events & SYS_EVENT_MSG )
        ANL       A,#0x80
        JNZ       $+5
        LJMP      ??ProjectApp_ProcessEvent_0 & 0xFFFF
//  199   {
//  200     MSGpkt = (afIncomingMSGPacket_t *)osal_msg_receive( ProjectApp_TaskID );
        ; Setup parameters for call to function osal_msg_receive
        SJMP      ??ProjectApp_ProcessEvent_1
//  201     while ( MSGpkt )
//  202     {
//  203       switch ( MSGpkt->hdr.event )
//  204       {
//  205         case ZDO_CB_MSG:
//  206           ProjectApp_ProcessZDOMsgs( (zdoIncomingMsg_t *)MSGpkt );
//  207           break;
//  208 
//  209         case KEY_CHANGE:
//  210           ProjectApp_HandleKeys( ((keyChange_t *)MSGpkt)->state, ((keyChange_t *)MSGpkt)->keys );
//  211           break;
//  212 
//  213         case AF_DATA_CONFIRM_CMD:
//  214           // This message is received as a confirmation of a data packet sent.
//  215           // The status is of ZStatus_t type [defined in ZComDef.h]
//  216           // The message fields are defined in AF.h
//  217           afDataConfirm = (afDataConfirm_t *)MSGpkt;
//  218           sentEP = afDataConfirm->endpoint;
//  219           sentStatus = afDataConfirm->hdr.status;
//  220           sentTransID = afDataConfirm->transID;
//  221           (void)sentEP;
//  222           (void)sentTransID;
//  223 
//  224           // Action taken when confirmation is received.
//  225           if ( sentStatus != ZSuccess )
//  226           {
//  227             // The data wasn't delivered -- Do something
//  228           }
//  229           break;
//  230 
//  231         case AF_INCOMING_MSG_CMD:
//  232            ProjectApp_MessageMSGCB( MSGpkt );
//  233           break;
//  234           
//  235         case ZDO_STATE_CHANGE:
//  236            user_state_change((devStates_t)(MSGpkt->hdr.status));
??ProjectApp_ProcessEvent_2:
        ; Setup parameters for call to function user_state_change
        INC       DPTR
        MOVX      A,@DPTR
        MOV       R1,A
        LCALL     `??user_state_change::?relay`; Banked call to: user_state_change
//  237           break;
//  238 
//  239         default:
//  240           break;
//  241       }
//  242 
//  243       // Release the memory
//  244       osal_msg_deallocate( (uint8 *)MSGpkt );
??ProjectApp_ProcessEvent_3:
        ; Setup parameters for call to function osal_msg_deallocate
        MOV       R2,?V0
        MOV       R3,?V1
        LCALL     `??osal_msg_deallocate::?relay`; Banked call to: osal_msg_deallocate
//  245 
//  246       // Next
//  247       MSGpkt = (afIncomingMSGPacket_t *)osal_msg_receive( ProjectApp_TaskID );
        ; Setup parameters for call to function osal_msg_receive
??ProjectApp_ProcessEvent_1:
        MOV       DPTR,#ProjectApp_TaskID
        MOVX      A,@DPTR
        MOV       R1,A
        LCALL     `??osal_msg_receive::?relay`; Banked call to: osal_msg_receive
        MOV       ?V0,R2
        MOV       ?V1,R3
        MOV       A,?V0
        ORL       A,?V1
        JZ        ??ProjectApp_ProcessEvent_4
        MOV       DPL,?V0
        MOV       DPH,?V1
        MOVX      A,@DPTR
        ADD       A,#-0x1a
        JZ        ??ProjectApp_ProcessEvent_5
        ADD       A,#0x5a
        JZ        ??ProjectApp_ProcessEvent_6
        ADD       A,#-0x11
        JZ        ??ProjectApp_ProcessEvent_2
        ADD       A,#-0x2
        JNZ       ??ProjectApp_ProcessEvent_3
        MOV       A,?V0
        ADD       A,#0xc
        MOV       DPL,A
        CLR       A
        ADDC      A,?V1
        MOV       DPH,A
        MOVX      A,@DPTR
        XRL       A,#0x20
        JNZ       ??ProjectApp_ProcessEvent_7
        INC       DPTR
        MOVX      A,@DPTR
        XRL       A,#0x80
??ProjectApp_ProcessEvent_7:
        JNZ       ??ProjectApp_ProcessEvent_3
        MOV       A,?V0
        ADD       A,#0x13
        MOV       DPL,A
        CLR       A
        ADDC      A,?V1
        MOV       DPH,A
        MOVX      A,@DPTR
        MOV       R0,A
        INC       DPTR
        MOVX      A,@DPTR
        MOV       DPH,A
        MOV       DPL,R0
        MOVX      A,@DPTR
        JNZ       ??ProjectApp_ProcessEvent_8
        ; Setup parameters for call to function printf
        MOV       R2,#`?<Constant "Bind success!\\r\\n">` & 0xff
        MOV       R3,#(`?<Constant "Bind success!\\r\\n">` >> 8) & 0xff
??ProjectApp_ProcessEvent_9:
        LCALL     `??printf::?relay`; Banked call to: printf
        SJMP      ??ProjectApp_ProcessEvent_3
??ProjectApp_ProcessEvent_8:
        ; Setup parameters for call to function printf
        MOV       R2,#`?<Constant "Bind failure!\\r\\n">` & 0xff
        MOV       R3,#(`?<Constant "Bind failure!\\r\\n">` >> 8) & 0xff
        SJMP      ??ProjectApp_ProcessEvent_9
??ProjectApp_ProcessEvent_6:
        ; Setup parameters for call to function ProjectApp_HandleKeys
        INC       DPTR
        INC       DPTR
        INC       DPTR
        MOVX      A,@DPTR
        MOV       R2,A
        MOV       DPL,?V0
        MOV       DPH,?V1
        INC       DPTR
        INC       DPTR
        MOVX      A,@DPTR
        MOV       R1,A
        LCALL     `??ProjectApp_HandleKeys::?relay`; Banked call to: ProjectApp_HandleKeys
        SJMP      ??ProjectApp_ProcessEvent_3
??ProjectApp_ProcessEvent_5:
        ; Setup parameters for call to function ProjectApp_MessageMSGCB
        MOV       R2,?V0
        MOV       R3,?V1
        LCALL     `??ProjectApp_MessageMSGCB::?relay`; Banked call to: ProjectApp_MessageMSGCB
        LJMP      ??ProjectApp_ProcessEvent_3 & 0xFFFF
//  248     }
//  249 
//  250     // return unprocessed events
//  251     return (events ^ SYS_EVENT_MSG);
??ProjectApp_ProcessEvent_4:
        MOV       A,R6
        MOV       R2,A
        MOV       A,R7
        XRL       A,#0x80
        SJMP      ??ProjectApp_ProcessEvent_10
//  252   }
//  253 
//  254   // Send a message out - This event is generated by a timer
//  255   //  (setup in ProjectApp_Init()).
//  256   if ( events & PROJECTAPP_SEND_MSG_EVT )
??ProjectApp_ProcessEvent_0:
        MOV       A,R2
        MOV       C,0xE0 /* A   */.0
        JNC       ??ProjectApp_ProcessEvent_11
//  257   {
//  258     // Send "the" message
//  259     ProjectApp_SendTheMessage();
        MOV       DPTR,#`?<Constant "Hello World">`
        MOV       R4,?XSP + 0
        MOV       R5,?XSP + 1
        MOV       A,#0xc
        LCALL     ?MOVE_LONG8_XDATA_XDATA
        ; Setup parameters for call to function osal_strlen
        MOV       R2,?XSP + 0
        MOV       R3,?XSP + 1
        LCALL     ?Subroutine3 & 0xFFFF
??CrossCallReturnLabel_4:
        LCALL     ?PUSH_XSTACK_I_ONE
          CFI CFA_XSP16 add(XSP16, 25)
        MOV       ?V0,#ProjectApp_TransID & 0xff
        MOV       ?V1,#(ProjectApp_TransID >> 8) & 0xff
        MOV       R0,#?V0
        LCALL     ?PUSH_XSTACK_I_TWO
          CFI CFA_XSP16 add(XSP16, 27)
        MOV       A,#0x3
        LCALL     ?XSTACK_DISP100_8
        MOV       ?V0,R0
        MOV       ?V1,R1
        MOV       R0,#?V0
        LCALL     ?PUSH_XSTACK_I_TWO
          CFI CFA_XSP16 add(XSP16, 29)
        LCALL     ?Subroutine0 & 0xFFFF
??CrossCallReturnLabel_0:
        LCALL     ?PUSH_XSTACK_I_TWO
          CFI CFA_XSP16 add(XSP16, 31)
        MOV       ?V0,#0x1
        MOV       ?V1,#0x0
        MOV       R0,#?V0
        LCALL     ?PUSH_XSTACK_I_TWO
          CFI CFA_XSP16 add(XSP16, 33)
        MOV       R1,#0x20
        MOV       R4,#ProjectApp_epDesc & 0xff
        MOV       R5,#(ProjectApp_epDesc >> 8) & 0xff
        MOV       R2,#ProjectApp_DstAddr & 0xff
        MOV       R3,#(ProjectApp_DstAddr >> 8) & 0xff
        LCALL     `??AF_DataRequest::?relay`; Banked call to: AF_DataRequest
        MOV       A,#0x9
        LCALL     ?DEALLOC_XSTACK8
          CFI CFA_XSP16 add(XSP16, 24)
//  260 
//  261     // Setup to send message again
//  262     osal_start_timerEx( ProjectApp_TaskID,
//  263                         PROJECTAPP_SEND_MSG_EVT,
//  264                         PROJECTAPP_SEND_MSG_TIMEOUT );
        ; Setup parameters for call to function osal_start_timerEx
        MOV       R4,#-0x78
        MOV       R5,#0x13
        MOV       R2,#0x1
        MOV       R3,#0x0
        MOV       DPTR,#ProjectApp_TaskID
        MOVX      A,@DPTR
        MOV       R1,A
        LCALL     `??osal_start_timerEx::?relay`; Banked call to: osal_start_timerEx
//  265 
//  266     // return unprocessed events
//  267     return (events ^ PROJECTAPP_SEND_MSG_EVT);
        MOV       A,R6
        XRL       A,#0x1
        MOV       R2,A
        MOV       A,R7
??ProjectApp_ProcessEvent_10:
        MOV       R3,A
        SJMP      ??ProjectApp_ProcessEvent_12
//  268   }
//  269 
//  270   
//  271 #if defined( IAR_ARMCM3_LM )
//  272   // Receive a message from the RTOS queue
//  273   if ( events & PROJECTAPP_RTOS_MSG_EVT )
//  274   {
//  275     // Process message from RTOS queue
//  276     ProjectApp_ProcessRtosMessage();
//  277 
//  278     // return unprocessed events
//  279     return (events ^ PROJECTAPP_RTOS_MSG_EVT);
//  280   }
//  281 #endif
//  282 
//  283   // Discard unknown events
//  284   return 0;
??ProjectApp_ProcessEvent_11:
        MOV       R2,#0x0
        MOV       R3,#0x0
??ProjectApp_ProcessEvent_12:
        MOV       A,#0xc
        LCALL     ?DEALLOC_XSTACK8
          CFI CFA_XSP16 add(XSP16, 12)
        MOV       R7,#0x4
        LJMP      ?BANKED_LEAVE_XDATA
//  285 }
          CFI EndBlock cfiBlock8
//  286 
//  287 
//  288 /*********************************************************************
//  289  * @fn      ProjectApp_HandleKeys
//  290  *
//  291  * @brief   Handles all key events for this device.
//  292  *
//  293  * @param   shift - true if in shift/alt.
//  294  * @param   keys - bit field for key events. Valid entries:
//  295  *                 HAL_KEY_SW_4
//  296  *                 HAL_KEY_SW_3
//  297  *                 HAL_KEY_SW_2
//  298  *                 HAL_KEY_SW_1
//  299  *
//  300  * @return  none
//  301  */

        RSEG BANKED_CODE:HUGECODE:NOROOT(0)
//  302 static void ProjectApp_HandleKeys( uint8 shift, uint8 keys )
ProjectApp_HandleKeys:
          CFI Block cfiBlock9 Using cfiCommon0
          CFI Function ProjectApp_HandleKeys
        CODE
//  303 {
        FUNCALL ProjectApp_HandleKeys, osal_strlen
        LOCFRAME ISTACK, 0, STACK
        LOCFRAME PSTACK, 0, STACK
        LOCFRAME XSTACK, 32, STACK
        LOCFRAME IOVERLAY, 0, STATIC
        LOCFRAME DOVERLAY, 0, STATIC
        ARGFRAME ISTACK, 0, STACK
        ARGFRAME PSTACK, 0, STACK
        ARGFRAME XSTACK, 32, STACK
        ARGFRAME IOVERLAY, 0, STATIC
        ARGFRAME DOVERLAY, 0, STATIC
        FUNCALL ProjectApp_HandleKeys, AF_DataRequest
        LOCFRAME ISTACK, 0, STACK
        LOCFRAME PSTACK, 0, STACK
        LOCFRAME XSTACK, 41, STACK
        LOCFRAME IOVERLAY, 0, STATIC
        LOCFRAME DOVERLAY, 0, STATIC
        ARGFRAME ISTACK, 0, STACK
        ARGFRAME PSTACK, 0, STACK
        ARGFRAME XSTACK, 41, STACK
        ARGFRAME IOVERLAY, 0, STATIC
        ARGFRAME DOVERLAY, 0, STATIC
        FUNCALL ProjectApp_HandleKeys, HalLedSet
        LOCFRAME ISTACK, 0, STACK
        LOCFRAME PSTACK, 0, STACK
        LOCFRAME XSTACK, 32, STACK
        LOCFRAME IOVERLAY, 0, STATIC
        LOCFRAME DOVERLAY, 0, STATIC
        ARGFRAME ISTACK, 0, STACK
        ARGFRAME PSTACK, 0, STACK
        ARGFRAME XSTACK, 32, STACK
        ARGFRAME IOVERLAY, 0, STATIC
        ARGFRAME DOVERLAY, 0, STATIC
        FUNCALL ProjectApp_HandleKeys, NLME_GetShortAddr
        LOCFRAME ISTACK, 0, STACK
        LOCFRAME PSTACK, 0, STACK
        LOCFRAME XSTACK, 32, STACK
        LOCFRAME IOVERLAY, 0, STATIC
        LOCFRAME DOVERLAY, 0, STATIC
        ARGFRAME ISTACK, 0, STACK
        ARGFRAME PSTACK, 0, STACK
        ARGFRAME XSTACK, 32, STACK
        ARGFRAME IOVERLAY, 0, STATIC
        ARGFRAME DOVERLAY, 0, STATIC
        FUNCALL ProjectApp_HandleKeys, ZDP_EndDeviceBindReq
        LOCFRAME ISTACK, 0, STACK
        LOCFRAME PSTACK, 0, STACK
        LOCFRAME XSTACK, 41, STACK
        LOCFRAME IOVERLAY, 0, STATIC
        LOCFRAME DOVERLAY, 0, STATIC
        ARGFRAME ISTACK, 0, STACK
        ARGFRAME PSTACK, 0, STACK
        ARGFRAME XSTACK, 41, STACK
        ARGFRAME IOVERLAY, 0, STATIC
        ARGFRAME DOVERLAY, 0, STATIC
        FUNCALL ProjectApp_HandleKeys, HalLedSet
        LOCFRAME ISTACK, 0, STACK
        LOCFRAME PSTACK, 0, STACK
        LOCFRAME XSTACK, 32, STACK
        LOCFRAME IOVERLAY, 0, STATIC
        LOCFRAME DOVERLAY, 0, STATIC
        ARGFRAME ISTACK, 0, STACK
        ARGFRAME PSTACK, 0, STACK
        ARGFRAME XSTACK, 32, STACK
        ARGFRAME IOVERLAY, 0, STATIC
        ARGFRAME DOVERLAY, 0, STATIC
        FUNCALL ProjectApp_HandleKeys, ZDP_MatchDescReq
        LOCFRAME ISTACK, 0, STACK
        LOCFRAME PSTACK, 0, STACK
        LOCFRAME XSTACK, 40, STACK
        LOCFRAME IOVERLAY, 0, STATIC
        LOCFRAME DOVERLAY, 0, STATIC
        ARGFRAME ISTACK, 0, STACK
        ARGFRAME PSTACK, 0, STACK
        ARGFRAME XSTACK, 40, STACK
        ARGFRAME IOVERLAY, 0, STATIC
        ARGFRAME DOVERLAY, 0, STATIC
        REQUIRE ?V0
        REQUIRE ?V1
        REQUIRE ?V2
        MOV       A,#-0xb
        LCALL     ?BANKED_ENTER_XDATA
          CFI DPH0 load(1, XDATA, add(CFA_XSP16, literal(-1)))
          CFI DPL0 load(1, XDATA, add(CFA_XSP16, literal(-2)))
          CFI ?BRET_EXT load(1, XDATA, add(CFA_XSP16, literal(-3)))
          CFI ?RET_HIGH load(1, XDATA, add(CFA_XSP16, literal(-4)))
          CFI ?RET_LOW load(1, XDATA, add(CFA_XSP16, literal(-5)))
          CFI R7 load(1, XDATA, add(CFA_XSP16, literal(-6)))
          CFI V2 load(1, XDATA, add(CFA_XSP16, literal(-7)))
          CFI V1 load(1, XDATA, add(CFA_XSP16, literal(-8)))
          CFI V0 load(1, XDATA, add(CFA_XSP16, literal(-9)))
          CFI VB load(1, XDATA, add(CFA_XSP16, literal(-10)))
          CFI R6 load(1, XDATA, add(CFA_XSP16, literal(-11)))
          CFI CFA_SP SP+0
          CFI CFA_XSP16 add(XSP16, 11)
        ; Saved register size: 11
        ; Auto size: 21
        MOV       A,#-0x15
        LCALL     ?ALLOC_XSTACK8
          CFI CFA_XSP16 add(XSP16, 32)
        MOV       A,R2
        MOV       R6,A
//  304   zAddrType_t dstAddr;
//  305 
//  306   // Shift is used to make each button/switch dual purpose.
//  307   if ( shift )
        MOV       A,R1
        JNZ       ??ProjectApp_HandleKeys_0
//  308   {
//  309     if ( keys & HAL_KEY_SW_1 )
//  310     {
//  311     }
//  312     if ( keys & HAL_KEY_SW_2 )
//  313     {
//  314     }
//  315     if ( keys & HAL_KEY_SW_3 )
//  316     {
//  317     }
//  318     if ( keys & HAL_KEY_SW_4 )
//  319     {
//  320     }
//  321   }
//  322   else
//  323   {
//  324     if ( keys & HAL_KEY_SW_1 )
        MOV       A,R2
        MOV       C,0xE0 /* A   */.0
        JNC       ??ProjectApp_HandleKeys_0
//  325     {
//  326     ProjectApp_SendBindcast();
        MOV       DPTR,#`?<Constant "Bind data\\r\\n">`
        MOV       A,#0x9
        LCALL     ?XSTACK_DISP102_8
        MOV       A,#0xc
        LCALL     ?MOVE_LONG8_XDATA_XDATA
        LCALL     ?Subroutine1 & 0xFFFF
??CrossCallReturnLabel_3:
        ; Setup parameters for call to function osal_strlen
        MOV       A,#0x9
        LCALL     ?XSTACK_DISP101_8
        LCALL     ?Subroutine3 & 0xFFFF
??CrossCallReturnLabel_5:
        LCALL     ?PUSH_XSTACK_I_ONE
          CFI CFA_XSP16 add(XSP16, 33)
        MOV       ?V0,#ProjectApp_TransID & 0xff
        MOV       ?V1,#(ProjectApp_TransID >> 8) & 0xff
        MOV       R0,#?V0
        LCALL     ?PUSH_XSTACK_I_TWO
          CFI CFA_XSP16 add(XSP16, 35)
        MOV       A,#0xc
        LCALL     ?XSTACK_DISP100_8
        MOV       ?V0,R0
        MOV       ?V1,R1
        MOV       R0,#?V0
        LCALL     ?PUSH_XSTACK_I_TWO
          CFI CFA_XSP16 add(XSP16, 37)
        LCALL     ?Subroutine0 & 0xFFFF
??CrossCallReturnLabel_1:
        LCALL     ?PUSH_XSTACK_I_TWO
          CFI CFA_XSP16 add(XSP16, 39)
        MOV       ?V0,#0x1
        MOV       ?V1,#0x0
        MOV       R0,#?V0
        LCALL     ?PUSH_XSTACK_I_TWO
          CFI CFA_XSP16 add(XSP16, 41)
        MOV       R1,#0x20
        MOV       R4,#ProjectApp_epDesc & 0xff
        MOV       R5,#(ProjectApp_epDesc >> 8) & 0xff
        MOV       R2,#ProjectApp_DstAddr & 0xff
        MOV       R3,#(ProjectApp_DstAddr >> 8) & 0xff
        LCALL     `??AF_DataRequest::?relay`; Banked call to: AF_DataRequest
        MOV       A,#0x9
        LCALL     ?DEALLOC_XSTACK8
          CFI CFA_XSP16 add(XSP16, 32)
//  327     }
//  328 
//  329 #if defined( SWITCH1_BIND )
//  330       // we can use SW1 to simulate SW2 for devices that only have one switch,
//  331       keys |= HAL_KEY_SW_2;
//  332 #elif defined( SWITCH1_MATCH )
//  333       // or use SW1 to simulate SW4 for devices that only have one switch
//  334       keys |= HAL_KEY_SW_4;
//  335 #endif
//  336     }
//  337 
//  338     if ( keys & HAL_KEY_SW_2 )
??ProjectApp_HandleKeys_0:
        MOV       A,R6
        MOV       C,0xE0 /* A   */.1
        JNC       ??ProjectApp_HandleKeys_1
//  339     {
//  340       HalLedSet ( HAL_LED_4, HAL_LED_MODE_OFF );
        ; Setup parameters for call to function HalLedSet
        MOV       R2,#0x0
        MOV       R1,#0x8
        LCALL     `??HalLedSet::?relay`; Banked call to: HalLedSet
//  341 
//  342       // Initiate an End Device Bind Request for the mandatory endpoint
//  343       dstAddr.addrMode = Addr16Bit;
        MOV       A,#0x8
        LCALL     ?XSTACK_DISP0_8
        MOV       A,#0x2
        MOVX      @DPTR,A
//  344       dstAddr.addr.shortAddr = 0x0000; // Coordinator
        MOV       DPL,?XSP + 0
        MOV       DPH,?XSP + 1
        CLR       A
        MOVX      @DPTR,A
        INC       DPTR
        MOVX      @DPTR,A
//  345       ZDP_EndDeviceBindReq( &dstAddr, NLME_GetShortAddr(),
//  346                             ProjectApp_epDesc.endPoint,
//  347                             PROJECTAPP_PROFID,
//  348                             PROJECTAPP_MAX_CLUSTERS, (cId_t *)ProjectApp_ClusterList,
//  349                             PROJECTAPP_MAX_CLUSTERS, (cId_t *)ProjectApp_ClusterList,
//  350                             FALSE );
        ; Setup parameters for call to function NLME_GetShortAddr
        LCALL     `??NLME_GetShortAddr::?relay`; Banked call to: NLME_GetShortAddr
        MOV       ?V0,R2
        MOV       ?V1,R3
        MOV       R4,?V0
        MOV       R5,?V1
        MOV       ?V0,#ProjectApp_ClusterList & 0xff
        MOV       ?V1,#(ProjectApp_ClusterList >> 8) & 0xff
        ; Setup parameters for call to function ZDP_EndDeviceBindReq
        MOV       ?V2,#0x0
        MOV       R0,#?V2
        LCALL     ?PUSH_XSTACK_I_ONE
          CFI CFA_XSP16 add(XSP16, 33)
        MOV       R0,#?V0
        LCALL     ?PUSH_XSTACK_I_TWO
          CFI CFA_XSP16 add(XSP16, 35)
        MOV       ?V2,#0x1
        MOV       R0,#?V2
        LCALL     ?PUSH_XSTACK_I_ONE
          CFI CFA_XSP16 add(XSP16, 36)
        MOV       R0,#?V0
        LCALL     ?PUSH_XSTACK_I_TWO
          CFI CFA_XSP16 add(XSP16, 38)
        MOV       ?V0,#0x1
        MOV       R0,#?V0
        LCALL     ?PUSH_XSTACK_I_ONE
          CFI CFA_XSP16 add(XSP16, 39)
        MOV       ?V0,#0x4
        MOV       ?V1,#0xf
        MOV       R0,#?V0
        LCALL     ?PUSH_XSTACK_I_TWO
          CFI CFA_XSP16 add(XSP16, 41)
        MOV       DPTR,#ProjectApp_epDesc
        MOVX      A,@DPTR
        MOV       R1,A
        MOV       A,#0x9
        LCALL     ?XSTACK_DISP101_8
        LCALL     `??ZDP_EndDeviceBindReq::?relay`; Banked call to: ZDP_EndDeviceBindReq
        MOV       A,#0x9
        LCALL     ?DEALLOC_XSTACK8
          CFI CFA_XSP16 add(XSP16, 32)
//  351     }
//  352 
//  353     if ( keys & HAL_KEY_SW_3 )
//  354     {
//  355     }
//  356 
//  357     if ( keys & HAL_KEY_SW_4 )
??ProjectApp_HandleKeys_1:
        MOV       A,R6
        MOV       C,0xE0 /* A   */.3
        JNC       ??ProjectApp_HandleKeys_2
//  358     {
//  359       HalLedSet ( HAL_LED_4, HAL_LED_MODE_OFF );
        ; Setup parameters for call to function HalLedSet
        MOV       R2,#0x0
        MOV       R1,#0x8
        LCALL     `??HalLedSet::?relay`; Banked call to: HalLedSet
//  360       // Initiate a Match Description Request (Service Discovery)
//  361       dstAddr.addrMode = AddrBroadcast;
        MOV       A,#0x8
        LCALL     ?XSTACK_DISP0_8
        MOV       A,#0xf
        MOVX      @DPTR,A
//  362       dstAddr.addr.shortAddr = NWK_BROADCAST_SHORTADDR;
        MOV       DPL,?XSP + 0
        MOV       DPH,?XSP + 1
        MOV       A,#-0x1
        MOVX      @DPTR,A
        INC       DPTR
        MOVX      @DPTR,A
//  363       ZDP_MatchDescReq( &dstAddr, NWK_BROADCAST_SHORTADDR,
//  364                         PROJECTAPP_PROFID,
//  365                         PROJECTAPP_MAX_CLUSTERS, (cId_t *)ProjectApp_ClusterList,
//  366                         PROJECTAPP_MAX_CLUSTERS, (cId_t *)ProjectApp_ClusterList,
//  367                         FALSE );
        MOV       ?V0,#ProjectApp_ClusterList & 0xff
        MOV       ?V1,#(ProjectApp_ClusterList >> 8) & 0xff
        ; Setup parameters for call to function ZDP_MatchDescReq
        MOV       ?V2,#0x0
        MOV       R0,#?V2
        LCALL     ?PUSH_XSTACK_I_ONE
          CFI CFA_XSP16 add(XSP16, 33)
        MOV       R0,#?V0
        LCALL     ?PUSH_XSTACK_I_TWO
          CFI CFA_XSP16 add(XSP16, 35)
        MOV       ?V2,#0x1
        MOV       R0,#?V2
        LCALL     ?PUSH_XSTACK_I_ONE
          CFI CFA_XSP16 add(XSP16, 36)
        MOV       R0,#?V0
        LCALL     ?PUSH_XSTACK_I_TWO
          CFI CFA_XSP16 add(XSP16, 38)
        MOV       ?V0,#0x4
        MOV       ?V1,#0xf
        MOV       R0,#?V0
        LCALL     ?PUSH_XSTACK_I_TWO
          CFI CFA_XSP16 add(XSP16, 40)
        MOV       R1,#0x1
        MOV       R4,#-0x1
        MOV       R5,#-0x1
        MOV       A,#0x8
        LCALL     ?XSTACK_DISP101_8
        LCALL     `??ZDP_MatchDescReq::?relay`; Banked call to: ZDP_MatchDescReq
        MOV       A,#0x8
        LCALL     ?DEALLOC_XSTACK8
          CFI CFA_XSP16 add(XSP16, 32)
//  368     }
//  369   }
??ProjectApp_HandleKeys_2:
        MOV       A,#0x15
        LCALL     ?DEALLOC_XSTACK8
          CFI CFA_XSP16 add(XSP16, 11)
        MOV       R7,#0x3
        LJMP      ?BANKED_LEAVE_XDATA
          CFI EndBlock cfiBlock9

        RSEG BANKED_CODE:HUGECODE:NOROOT(0)
?Subroutine3:
          CFI Block cfiCond10 Using cfiCommon0
          CFI Function ProjectApp_ProcessEvent
          CFI Conditional ??CrossCallReturnLabel_4
          CFI R6 load(1, XDATA, add(CFA_XSP16, literal(-12)))
          CFI VB load(1, XDATA, add(CFA_XSP16, literal(-11)))
          CFI V0 load(1, XDATA, add(CFA_XSP16, literal(-10)))
          CFI V1 load(1, XDATA, add(CFA_XSP16, literal(-9)))
          CFI V2 load(1, XDATA, add(CFA_XSP16, literal(-8)))
          CFI V3 load(1, XDATA, add(CFA_XSP16, literal(-7)))
          CFI R7 load(1, XDATA, add(CFA_XSP16, literal(-6)))
          CFI ?RET_LOW load(1, XDATA, add(CFA_XSP16, literal(-5)))
          CFI ?RET_HIGH load(1, XDATA, add(CFA_XSP16, literal(-4)))
          CFI ?BRET_EXT load(1, XDATA, add(CFA_XSP16, literal(-3)))
          CFI DPL0 load(1, XDATA, add(CFA_XSP16, literal(-2)))
          CFI DPH0 load(1, XDATA, add(CFA_XSP16, literal(-1)))
          CFI CFA_SP SP+-2
          CFI CFA_XSP16 add(XSP16, 24)
          CFI Block cfiCond11 Using cfiCommon0
          CFI (cfiCond11) Function ProjectApp_HandleKeys
          CFI (cfiCond11) Conditional ??CrossCallReturnLabel_5
          CFI (cfiCond11) R6 load(1, XDATA, add(CFA_XSP16, literal(-11)))
          CFI (cfiCond11) VB load(1, XDATA, add(CFA_XSP16, literal(-10)))
          CFI (cfiCond11) V0 load(1, XDATA, add(CFA_XSP16, literal(-9)))
          CFI (cfiCond11) V1 load(1, XDATA, add(CFA_XSP16, literal(-8)))
          CFI (cfiCond11) V2 load(1, XDATA, add(CFA_XSP16, literal(-7)))
          CFI (cfiCond11) R7 load(1, XDATA, add(CFA_XSP16, literal(-6)))
          CFI (cfiCond11) ?RET_LOW load(1, XDATA, add(CFA_XSP16, literal(-5)))
          CFI (cfiCond11) ?RET_HIGH load(1, XDATA, add(CFA_XSP16, literal(-4)))
          CFI (cfiCond11) ?BRET_EXT load(1, XDATA, add(CFA_XSP16, literal(-3)))
          CFI (cfiCond11) DPL0 load(1, XDATA, add(CFA_XSP16, literal(-2)))
          CFI (cfiCond11) DPH0 load(1, XDATA, add(CFA_XSP16, literal(-1)))
          CFI (cfiCond11) CFA_SP SP+-2
          CFI (cfiCond11) CFA_XSP16 add(XSP16, 32)
          CFI Block cfiPicker12 Using cfiCommon1
          CFI (cfiPicker12) NoFunction
          CFI (cfiPicker12) Picker
        LCALL     `??osal_strlen::?relay`; Banked call to: osal_strlen
        ; Setup parameters for call to function AF_DataRequest
        ; Setup parameters for call to function AF_DataRequest
        MOV       ?V0,#0x1e
        MOV       R0,#?V0
        RET
          CFI EndBlock cfiCond10
          CFI EndBlock cfiCond11
          CFI EndBlock cfiPicker12

        RSEG BANKED_CODE:HUGECODE:NOROOT(0)
?Subroutine1:
          CFI Block cfiCond13 Using cfiCommon0
          CFI Function ProjectApp_Init
          CFI Conditional ??CrossCallReturnLabel_2
          CFI R6 load(1, XDATA, add(CFA_XSP16, literal(-9)))
          CFI VB load(1, XDATA, add(CFA_XSP16, literal(-8)))
          CFI V0 load(1, XDATA, add(CFA_XSP16, literal(-7)))
          CFI R7 load(1, XDATA, add(CFA_XSP16, literal(-6)))
          CFI ?RET_LOW load(1, XDATA, add(CFA_XSP16, literal(-5)))
          CFI ?RET_HIGH load(1, XDATA, add(CFA_XSP16, literal(-4)))
          CFI ?BRET_EXT load(1, XDATA, add(CFA_XSP16, literal(-3)))
          CFI DPL0 load(1, XDATA, add(CFA_XSP16, literal(-2)))
          CFI DPH0 load(1, XDATA, add(CFA_XSP16, literal(-1)))
          CFI CFA_SP SP+-2
          CFI CFA_XSP16 add(XSP16, 9)
          CFI Block cfiCond14 Using cfiCommon0
          CFI (cfiCond14) Function ProjectApp_HandleKeys
          CFI (cfiCond14) Conditional ??CrossCallReturnLabel_3
          CFI (cfiCond14) R6 load(1, XDATA, add(CFA_XSP16, literal(-11)))
          CFI (cfiCond14) VB load(1, XDATA, add(CFA_XSP16, literal(-10)))
          CFI (cfiCond14) V0 load(1, XDATA, add(CFA_XSP16, literal(-9)))
          CFI (cfiCond14) V1 load(1, XDATA, add(CFA_XSP16, literal(-8)))
          CFI (cfiCond14) V2 load(1, XDATA, add(CFA_XSP16, literal(-7)))
          CFI (cfiCond14) R7 load(1, XDATA, add(CFA_XSP16, literal(-6)))
          CFI (cfiCond14) ?RET_LOW load(1, XDATA, add(CFA_XSP16, literal(-5)))
          CFI (cfiCond14) ?RET_HIGH load(1, XDATA, add(CFA_XSP16, literal(-4)))
          CFI (cfiCond14) ?BRET_EXT load(1, XDATA, add(CFA_XSP16, literal(-3)))
          CFI (cfiCond14) DPL0 load(1, XDATA, add(CFA_XSP16, literal(-2)))
          CFI (cfiCond14) DPH0 load(1, XDATA, add(CFA_XSP16, literal(-1)))
          CFI (cfiCond14) CFA_SP SP+-2
          CFI (cfiCond14) CFA_XSP16 add(XSP16, 32)
          CFI Block cfiPicker15 Using cfiCommon1
          CFI (cfiPicker15) NoFunction
          CFI (cfiPicker15) Picker
        MOV       DPTR,#ProjectApp_DstAddr + 8
        MOVX      @DPTR,A
        INC       DPTR
        MOVX      @DPTR,A
        MOV       DPTR,#ProjectApp_DstAddr
        MOVX      @DPTR,A
        INC       DPTR
        MOVX      @DPTR,A
        RET
          CFI EndBlock cfiCond13
          CFI EndBlock cfiCond14
          CFI EndBlock cfiPicker15

        RSEG BANKED_CODE:HUGECODE:NOROOT(0)
?Subroutine0:
          CFI Block cfiCond16 Using cfiCommon0
          CFI Function ProjectApp_ProcessEvent
          CFI Conditional ??CrossCallReturnLabel_0
          CFI R6 load(1, XDATA, add(CFA_XSP16, literal(-12)))
          CFI VB load(1, XDATA, add(CFA_XSP16, literal(-11)))
          CFI V0 load(1, XDATA, add(CFA_XSP16, literal(-10)))
          CFI V1 load(1, XDATA, add(CFA_XSP16, literal(-9)))
          CFI V2 load(1, XDATA, add(CFA_XSP16, literal(-8)))
          CFI V3 load(1, XDATA, add(CFA_XSP16, literal(-7)))
          CFI R7 load(1, XDATA, add(CFA_XSP16, literal(-6)))
          CFI ?RET_LOW load(1, XDATA, add(CFA_XSP16, literal(-5)))
          CFI ?RET_HIGH load(1, XDATA, add(CFA_XSP16, literal(-4)))
          CFI ?BRET_EXT load(1, XDATA, add(CFA_XSP16, literal(-3)))
          CFI DPL0 load(1, XDATA, add(CFA_XSP16, literal(-2)))
          CFI DPH0 load(1, XDATA, add(CFA_XSP16, literal(-1)))
          CFI CFA_SP SP+-2
          CFI CFA_XSP16 add(XSP16, 29)
          CFI Block cfiCond17 Using cfiCommon0
          CFI (cfiCond17) Function ProjectApp_HandleKeys
          CFI (cfiCond17) Conditional ??CrossCallReturnLabel_1
          CFI (cfiCond17) R6 load(1, XDATA, add(CFA_XSP16, literal(-11)))
          CFI (cfiCond17) VB load(1, XDATA, add(CFA_XSP16, literal(-10)))
          CFI (cfiCond17) V0 load(1, XDATA, add(CFA_XSP16, literal(-9)))
          CFI (cfiCond17) V1 load(1, XDATA, add(CFA_XSP16, literal(-8)))
          CFI (cfiCond17) V2 load(1, XDATA, add(CFA_XSP16, literal(-7)))
          CFI (cfiCond17) R7 load(1, XDATA, add(CFA_XSP16, literal(-6)))
          CFI (cfiCond17) ?RET_LOW load(1, XDATA, add(CFA_XSP16, literal(-5)))
          CFI (cfiCond17) ?RET_HIGH load(1, XDATA, add(CFA_XSP16, literal(-4)))
          CFI (cfiCond17) ?BRET_EXT load(1, XDATA, add(CFA_XSP16, literal(-3)))
          CFI (cfiCond17) DPL0 load(1, XDATA, add(CFA_XSP16, literal(-2)))
          CFI (cfiCond17) DPH0 load(1, XDATA, add(CFA_XSP16, literal(-1)))
          CFI (cfiCond17) CFA_SP SP+-2
          CFI (cfiCond17) CFA_XSP16 add(XSP16, 37)
          CFI Block cfiPicker18 Using cfiCommon1
          CFI (cfiPicker18) NoFunction
          CFI (cfiPicker18) Picker
        MOV       A,R2
        ADD       A,#0x1
        MOV       ?V0,A
        CLR       A
        ADDC      A,#0x0
        MOV       ?V1,A
        MOV       R0,#?V0
        RET
          CFI EndBlock cfiCond16
          CFI EndBlock cfiCond17
          CFI EndBlock cfiPicker18
//  370 
//  371 
//  372 static void ProjectApp_ProcessZDOMsgs( zdoIncomingMsg_t *inMsg )//每次“绑定”状态发生改变，均会调用此函数
//  373 {
//  374   switch ( inMsg->clusterID )
//  375   {
//  376     case End_Device_Bind_rsp:
//  377       if ( ZDO_ParseBindRsp( inMsg ) == ZSuccess )
//  378       {
//  379         printf("Bind success!\r\n");
//  380       }
//  381       else
//  382       {
//  383         printf("Bind failure!\r\n");
//  384       }
//  385       break;
//  386   }
//  387 }
//  388 
//  389 static void ProjectApp_SendBindcast( void )
//  390 {
//  391   char theMessageData[ ] = "Bind data\r\n";
//  392  
//  393   ProjectApp_DstAddr.addrMode       = (afAddrMode_t)AddrNotPresent;
//  394   ProjectApp_DstAddr.endPoint       = 0;
//  395   ProjectApp_DstAddr.addr.shortAddr = 0;
//  396  
//  397   AF_DataRequest( &ProjectApp_DstAddr,
//  398                   &ProjectApp_epDesc,
//  399                   PROJECTAPP_CLUSTERID,
//  400                   (byte)osal_strlen( theMessageData ) + 1,
//  401                   (byte *)&theMessageData,
//  402                   &ProjectApp_TransID,
//  403                   AF_DISCV_ROUTE,
//  404                   AF_DEFAULT_RADIUS
//  405                 );
//  406 }
//  407 
//  408 uint8 IOInit(void)
//  409 { P0SEL &= BV(5);
//  410   P0DIR |= BV(5);
//  411   return 0;
//  412 }
//  413 
//  414 uint8 GetLamp( void )
//  415 {
//  416   uint8 ret;
//  417   IOInit();
//  418   if(LAMP_PIN == 0)
//  419   {
//  420     ret = 0;
//  421   }
//  422   else
//  423   {
//  424     ret = 1;
//  425   }
//  426   
//  427   return ret;
//  428 }
//  429 

        RSEG BANKED_CODE:HUGECODE:NOROOT(0)
//  430 static void ProjectApp_MessageMSGCB( afIncomingMSGPacket_t *pkt )
ProjectApp_MessageMSGCB:
          CFI Block cfiBlock19 Using cfiCommon0
          CFI Function ProjectApp_MessageMSGCB
        CODE
//  431 {
        FUNCALL ProjectApp_MessageMSGCB, osal_memcpy
        LOCFRAME ISTACK, 0, STACK
        LOCFRAME PSTACK, 0, STACK
        LOCFRAME XSTACK, 20, STACK
        LOCFRAME IOVERLAY, 0, STATIC
        LOCFRAME DOVERLAY, 0, STATIC
        ARGFRAME ISTACK, 0, STACK
        ARGFRAME PSTACK, 0, STACK
        ARGFRAME XSTACK, 20, STACK
        ARGFRAME IOVERLAY, 0, STATIC
        ARGFRAME DOVERLAY, 0, STATIC
        FUNCALL ProjectApp_MessageMSGCB, HalUARTWrite
        LOCFRAME ISTACK, 0, STACK
        LOCFRAME PSTACK, 0, STACK
        LOCFRAME XSTACK, 17, STACK
        LOCFRAME IOVERLAY, 0, STATIC
        LOCFRAME DOVERLAY, 0, STATIC
        ARGFRAME ISTACK, 0, STACK
        ARGFRAME PSTACK, 0, STACK
        ARGFRAME XSTACK, 17, STACK
        ARGFRAME IOVERLAY, 0, STATIC
        ARGFRAME DOVERLAY, 0, STATIC
        REQUIRE ?V0
        REQUIRE ?V1
        REQUIRE ?V2
        REQUIRE ?V4
        REQUIRE ?V5
        MOV       A,#-0xe
        LCALL     ?BANKED_ENTER_XDATA
          CFI DPH0 load(1, XDATA, add(CFA_XSP16, literal(-1)))
          CFI DPL0 load(1, XDATA, add(CFA_XSP16, literal(-2)))
          CFI ?BRET_EXT load(1, XDATA, add(CFA_XSP16, literal(-3)))
          CFI ?RET_HIGH load(1, XDATA, add(CFA_XSP16, literal(-4)))
          CFI ?RET_LOW load(1, XDATA, add(CFA_XSP16, literal(-5)))
          CFI R7 load(1, XDATA, add(CFA_XSP16, literal(-6)))
          CFI V5 load(1, XDATA, add(CFA_XSP16, literal(-7)))
          CFI V4 load(1, XDATA, add(CFA_XSP16, literal(-8)))
          CFI V3 load(1, XDATA, add(CFA_XSP16, literal(-9)))
          CFI V2 load(1, XDATA, add(CFA_XSP16, literal(-10)))
          CFI V1 load(1, XDATA, add(CFA_XSP16, literal(-11)))
          CFI V0 load(1, XDATA, add(CFA_XSP16, literal(-12)))
          CFI VB load(1, XDATA, add(CFA_XSP16, literal(-13)))
          CFI R6 load(1, XDATA, add(CFA_XSP16, literal(-14)))
          CFI CFA_SP SP+0
          CFI CFA_XSP16 add(XSP16, 14)
        ; Saved register size: 14
        ; Auto size: 3
        MOV       A,#-0x3
        LCALL     ?ALLOC_XSTACK8
          CFI CFA_XSP16 add(XSP16, 17)
        MOV       A,R2
        MOV       R6,A
        MOV       A,R3
        MOV       R7,A
//  432   uint8 jidianqi;
//  433   jidianqi = GetLamp(); //jidianqid的状态 1为高电平 0 为低电平 低电平触发（0开 1关）
        ANL       0xf3,#0x20
        ORL       0xfd,#0x20
        MOV       A,0x80
//  434   switch ( pkt->clusterId )
        MOV       DPL,R2
        MOV       DPH,R3
        INC       DPTR
        INC       DPTR
        INC       DPTR
        INC       DPTR
        MOVX      A,@DPTR
        XRL       A,#0x1
        JNZ       ??ProjectApp_MessageMSGCB_0
        INC       DPTR
        MOVX      A,@DPTR
??ProjectApp_MessageMSGCB_0:
        JNZ       ??ProjectApp_MessageMSGCB_1
//  435   {
//  436      unsigned char buffer[3];
//  437     case PROJECTAPP_CLUSTERID:
//  438       osal_memcpy(buffer,pkt->cmd.Data,3);//将接收到的数据复制到buffer区
        MOV       A,R2
        ADD       A,#0x22
        MOV       ?V4,A
        CLR       A
        ADDC      A,R7
        MOV       ?V5,A
        ; Setup parameters for call to function osal_memcpy
        MOV       DPL,?V4
        MOV       DPH,A
        MOVX      A,@DPTR
        MOV       ?V0,A
        INC       DPTR
        MOVX      A,@DPTR
        MOV       ?V1,A
        MOV       ?V2,#0x0
        MOV       R0,#?V0
        LCALL     ?PUSH_XSTACK_I_THREE
          CFI CFA_XSP16 add(XSP16, 20)
        MOV       R4,#0x3
        MOV       R5,#0x0
        MOV       A,R4
        LCALL     ?XSTACK_DISP101_8
        LCALL     `??osal_memcpy::?relay`; Banked call to: osal_memcpy
        MOV       A,#0x3
        LCALL     ?DEALLOC_XSTACK8
          CFI CFA_XSP16 add(XSP16, 17)
//  439       HalUARTWrite(0, pkt->cmd.Data, pkt->cmd.DataLength); //输出接收到的数据
        ; Setup parameters for call to function HalUARTWrite
        MOV       A,R6
        ADD       A,#0x20
        MOV       DPL,A
        CLR       A
        ADDC      A,R7
        MOV       DPH,A
        MOVX      A,@DPTR
        MOV       R4,A
        INC       DPTR
        MOVX      A,@DPTR
        MOV       R5,A
        MOV       DPL,?V4
        MOV       DPH,?V5
        MOVX      A,@DPTR
        MOV       R2,A
        INC       DPTR
        MOVX      A,@DPTR
        MOV       R3,A
        MOV       R1,#0x0
        LCALL     `??HalUARTWrite::?relay`; Banked call to: HalUARTWrite
//  440       if(buffer[0] <= 3)
        MOV       DPL,?XSP + 0
        MOV       DPH,?XSP + 1
        MOVX      A,@DPTR
        CLR       C
        SUBB      A,#0x4
        JC        ??ProjectApp_MessageMSGCB_2
//  441       {
//  442         P0_5=1;
//  443       }
//  444       else if((buffer[0] <= 3) && jidianqi==0)
//  445       {
//  446         
//  447       }
//  448       else if(buffer[0] > 3 )
//  449       {
//  450         P0_5=0;
//  451       }
//  452       else if((buffer[0] > 3) && jidianqi==1)
//  453       {
//  454         
//  455       }
//  456       else if((strstr((const char *)UART0_RX_BUFF,"turn on fan"))&&jidianqi==1)
//  457       {
//  458         P0_5=0;
        CLR       0x80.5
        SJMP      ??ProjectApp_MessageMSGCB_1
//  459       }
//  460       else if((strstr((const char*)UART0_RX_BUFF,"turn off fan"))&&jidianqi==0)
//  461       {
//  462         P0_5=1;
??ProjectApp_MessageMSGCB_2:
        SETB      0x80.5
//  463       }
//  464       break;
//  465   }
//  466 }
??ProjectApp_MessageMSGCB_1:
        MOV       A,#0x3
        LCALL     ?DEALLOC_XSTACK8
          CFI CFA_XSP16 add(XSP16, 14)
        MOV       R7,#0x6
        LJMP      ?BANKED_LEAVE_XDATA
          CFI EndBlock cfiBlock19
        REQUIRE _A_P0
        REQUIRE P0SEL
        REQUIRE P0DIR

        RSEG BANK_RELAYS:CODE:REORDER:NOROOT(0)
`??ProjectApp_Init::?relay`:
        CODE
        LCALL   ?BDISPATCH
        DATA24
        DC24    ProjectApp_Init

        RSEG BANK_RELAYS:CODE:REORDER:NOROOT(0)
`??ProjectApp_ProcessEvent::?relay`:
        CODE
        LCALL   ?BDISPATCH
        DATA24
        DC24    ProjectApp_ProcessEvent

        RSEG BANK_RELAYS:CODE:REORDER:NOROOT(0)
`??ProjectApp_HandleKeys::?relay`:
        CODE
        LCALL   ?BDISPATCH
        DATA24
        DC24    ProjectApp_HandleKeys

        RSEG BANK_RELAYS:CODE:REORDER:NOROOT(0)
`??ProjectApp_MessageMSGCB::?relay`:
        CODE
        LCALL   ?BDISPATCH
        DATA24
        DC24    ProjectApp_MessageMSGCB

        RSEG XDATA_ROM_C:CONST:REORDER:NOROOT(0)
        DATA8
`?<Constant "Bind success!\\r\\n">`:
        DB "Bind success!\015\012"

        RSEG XDATA_ROM_C:CONST:REORDER:NOROOT(0)
        DATA8
`?<Constant "Bind failure!\\r\\n">`:
        DB "Bind failure!\015\012"

        RSEG XDATA_ROM_C:CONST:REORDER:NOROOT(0)
        DATA8
`?<Constant "Bind data\\r\\n">`:
        DB "Bind data\015\012"

        RSEG XDATA_ROM_C:CONST:REORDER:NOROOT(0)
        DATA8
        DB "turn on fan"

        RSEG XDATA_ROM_C:CONST:REORDER:NOROOT(0)
        DATA8
        DB "turn off fan"

        RSEG XDATA_ROM_C:CONST:REORDER:NOROOT(0)
        DATA8
`?<Constant "Hello World">`:
        DB "Hello World"

        END
//  467 
//  468 /*********************************************************************
//  469  * @fn      ProjectApp_SendTheMessage
//  470  *
//  471  * @brief   Send "the" message.
//  472  *
//  473  * @param   none
//  474  *
//  475  * @return  none
//  476  */
//  477 static void ProjectApp_SendTheMessage( void )
//  478 {
//  479   char theMessageData[] = "Hello World";
//  480 
//  481   if ( AF_DataRequest( &ProjectApp_DstAddr, &ProjectApp_epDesc,
//  482                        PROJECTAPP_CLUSTERID,
//  483                        (byte)osal_strlen( theMessageData ) + 1,
//  484                        (byte *)&theMessageData,
//  485                        &ProjectApp_TransID,
//  486                        AF_DISCV_ROUTE, AF_DEFAULT_RADIUS ) == afStatus_SUCCESS )
//  487   {
//  488     // Successfully requested to be sent.
//  489   }
//  490   else
//  491   {
//  492     // Error occurred in request to send.
//  493   }
//  494 }
//  495 
//  496 #if defined( IAR_ARMCM3_LM )
//  497 /*********************************************************************
//  498  * @fn      ProjectApp_ProcessRtosMessage
//  499  *
//  500  * @brief   Receive message from RTOS queue, send response back.
//  501  *
//  502  * @param   none
//  503  *
//  504  * @return  none
//  505  */
//  506 static void ProjectApp_ProcessRtosMessage( void )
//  507 {
//  508   osalQueue_t inMsg;
//  509 
//  510   if ( osal_queue_receive( OsalQueue, &inMsg, 0 ) == pdPASS )
//  511   {
//  512     uint8 cmndId = inMsg.cmnd;
//  513     uint32 counter = osal_build_uint32( inMsg.cbuf, 4 );
//  514 
//  515     switch ( cmndId )
//  516     {
//  517       case CMD_INCR:
//  518         counter += 1;  /* Increment the incoming counter */
//  519                        /* Intentionally fall through next case */
//  520 
//  521       case CMD_ECHO:
//  522       {
//  523         userQueue_t outMsg;
//  524 
//  525         outMsg.resp = RSP_CODE | cmndId;  /* Response ID */
//  526         osal_buffer_uint32( outMsg.rbuf, counter );    /* Increment counter */
//  527         osal_queue_send( UserQueue1, &outMsg, 0 );  /* Send back to UserTask */
//  528         break;
//  529       }
//  530       
//  531       default:
//  532         break;  /* Ignore unknown command */    
//  533     }
//  534   }
//  535 }
//  536 #endif
//  537 
//  538 /*********************************************************************
//  539  */
// 
// 893 bytes in segment BANKED_CODE
//  24 bytes in segment BANK_RELAYS
//   3 bytes in segment SFR_AN
//  95 bytes in segment XDATA_ROM_C
//  21 bytes in segment XDATA_Z
// 
//  24 bytes of CODE     memory
//  95 bytes of CONST    memory
//   0 bytes of DATA     memory (+ 3 bytes shared)
// 893 bytes of HUGECODE memory
//  21 bytes of XDATA    memory
//
//Errors: none
//Warnings: none
